GAS LISTING C:\DOKUME~1\Romahn\LOKALE~1\Temp/ccAI76Wf.s 			page 1


   1               		.file	"main.c"
   2               	__SREG__ = 0x3f
   3               	__SP_H__ = 0x3e
   4               	__SP_L__ = 0x3d
   5               	__CCP__  = 0x34
   6               	__tmp_reg__ = 0
   7               	__zero_reg__ = 1
   8               		.section	.debug_abbrev,"",@progbits
   9               	.Ldebug_abbrev0:
  10               		.section	.debug_info,"",@progbits
  11               	.Ldebug_info0:
  12               		.section	.debug_line,"",@progbits
  13               	.Ldebug_line0:
  14               		.text
  15               	.Ltext0:
  16               	.global	time
  17               		.type	time, @function
  18               	time:
  19               	.LFB9:
  20               	.LM1:
  21               	/* prologue: function */
  22               	/* frame size = 0 */
  23               	.LM2:
  24               	/* #APP */
  25               	 ;  109 "main.c" 1
  26 0000 F894      		cli
  27               	 ;  0 "" 2
  28               	.LM3:
  29               	/* #NOAPP */
  30 0002 2091 0000 		lds r18,systime
  31 0006 3091 0000 		lds r19,(systime)+1
  32               	.LVL0:
  33               	.LM4:
  34               	/* #APP */
  35               	 ;  111 "main.c" 1
  36 000a 7894      		sei
  37               	 ;  0 "" 2
  38               	.LM5:
  39               	/* #NOAPP */
  40 000c C901      		movw r24,r18
  41               	.LVL1:
  42               	/* epilogue start */
  43 000e 0895      		ret
  44               	.LFE9:
  45               		.size	time, .-time
  46               	.global	tsipDecodeSATELLITE
  47               		.type	tsipDecodeSATELLITE, @function
  48               	tsipDecodeSATELLITE:
  49               	.LFB10:
  50               	.LM6:
  51               	/* prologue: function */
  52               	/* frame size = 0 */
  53               	.LM7:
  54 0010 8091 0000 		lds r24,tsipSATELLITE
  55 0014 8D36      		cpi r24,lo8(109)
  56 0016 01F0      		breq .L4
  57 0018 80E0      		ldi r24,lo8(0)
GAS LISTING C:\DOKUME~1\Romahn\LOKALE~1\Temp/ccAI76Wf.s 			page 2


  58 001a 0895      		ret
  59               	.L4:
  60               	.LM8:
  61 001c 8091 0000 		lds r24,tsipSATELLITE+1
  62 0020 8295      		swap r24
  63 0022 8F70      		andi r24,lo8(15)
  64 0024 8093 0000 		sts satcount,r24
  65               	.LM9:
  66 0028 1092 0000 		sts tsipSATELLITE,__zero_reg__
  67 002c 81E0      		ldi r24,lo8(1)
  68               	.LM10:
  69 002e 0895      		ret
  70               	.LFE10:
  71               		.size	tsipDecodeSATELLITE, .-tsipDecodeSATELLITE
  72               	.global	tsipDecodeSTATUS
  73               		.type	tsipDecodeSTATUS, @function
  74               	tsipDecodeSTATUS:
  75               	.LFB11:
  76               	.LM11:
  77               	/* prologue: function */
  78               	/* frame size = 0 */
  79               	.LM12:
  80 0030 8091 0000 		lds r24,tsipSTATUS
  81 0034 8C3A      		cpi r24,lo8(-84)
  82 0036 01F0      		breq .L8
  83 0038 80E0      		ldi r24,lo8(0)
  84 003a 0895      		ret
  85               	.L8:
  86               	.LM13:
  87 003c 8091 0000 		lds r24,tsipSTATUS+12
  88 0040 8823      		tst r24
  89 0042 01F4      		brne .L10
  90               	.LM14:
  91 0044 8091 0000 		lds r24,tsipSTATUS+2
  92 0048 8330      		cpi r24,lo8(3)
  93 004a 01F0      		breq .L15
  94 004c 8430      		cpi r24,lo8(4)
  95 004e 00F4      		brsh .L19
  96 0050 8130      		cpi r24,lo8(1)
  97 0052 01F0      		breq .L13
  98 0054 8230      		cpi r24,lo8(2)
  99 0056 00F4      		brsh .L14
 100 0058 00C0      		rjmp .L72
 101               	.L19:
 102 005a 8530      		cpi r24,lo8(5)
 103 005c 01F0      		breq .L17
 104 005e 8530      		cpi r24,lo8(5)
 105 0060 00F0      		brlo .L16
 106 0062 8630      		cpi r24,lo8(6)
 107 0064 01F4      		brne .L68
 108 0066 00C0      		rjmp .L73
 109               	.L72:
 110               	.LM15:
 111 0068 80E0      		ldi r24,lo8(disciplinmode0)
 112 006a 90E0      		ldi r25,hi8(disciplinmode0)
 113 006c 00C0      		rjmp .L69
 114               	.L13:
GAS LISTING C:\DOKUME~1\Romahn\LOKALE~1\Temp/ccAI76Wf.s 			page 3


 115               	.LM16:
 116 006e 80E0      		ldi r24,lo8(disciplinmode1)
 117 0070 90E0      		ldi r25,hi8(disciplinmode1)
 118 0072 00C0      		rjmp .L69
 119               	.L14:
 120               	.LM17:
 121 0074 80E0      		ldi r24,lo8(disciplinmode2)
 122 0076 90E0      		ldi r25,hi8(disciplinmode2)
 123 0078 00C0      		rjmp .L69
 124               	.L15:
 125               	.LM18:
 126 007a 80E0      		ldi r24,lo8(disciplinmode3)
 127 007c 90E0      		ldi r25,hi8(disciplinmode3)
 128 007e 00C0      		rjmp .L69
 129               	.L16:
 130               	.LM19:
 131 0080 80E0      		ldi r24,lo8(disciplinmode4)
 132 0082 90E0      		ldi r25,hi8(disciplinmode4)
 133 0084 00C0      		rjmp .L69
 134               	.L17:
 135               	.LM20:
 136 0086 80E0      		ldi r24,lo8(disciplinmode5)
 137 0088 90E0      		ldi r25,hi8(disciplinmode5)
 138 008a 00C0      		rjmp .L69
 139               	.L73:
 140               	.LM21:
 141 008c 80E0      		ldi r24,lo8(disciplinmode6)
 142 008e 90E0      		ldi r25,hi8(disciplinmode6)
 143 0090 00C0      		rjmp .L69
 144               	.L68:
 145               	.LM22:
 146 0092 80E0      		ldi r24,lo8(disciplinmodeu)
 147 0094 90E0      		ldi r25,hi8(disciplinmodeu)
 148 0096 00C0      		rjmp .L69
 149               	.L10:
 150               	.LM23:
 151 0098 E82F      		mov r30,r24
 152 009a F0E0      		ldi r31,lo8(0)
 153 009c E131      		cpi r30,17
 154 009e F105      		cpc r31,__zero_reg__
 155 00a0 00F4      		brsh .L21
 156 00a2 E050      		subi r30,lo8(-(gs(.L32)))
 157 00a4 F040      		sbci r31,hi8(-(gs(.L32)))
 158 00a6 0994      		ijmp
 159               		.data
 160               		.section .progmem.gcc_sw_table, "ax", @progbits
 161               		.p2align 1
 162               	.L32:
 163               		.data
 164               		.section .progmem.gcc_sw_table, "ax", @progbits
 165               		.p2align 1
 166 0000 00C0      		rjmp .L22
 167 0002 00C0      		rjmp .L23
 168 0004 00C0      		rjmp .L24
 169 0006 00C0      		rjmp .L25
 170 0008 00C0      		rjmp .L21
 171 000a 00C0      		rjmp .L21
GAS LISTING C:\DOKUME~1\Romahn\LOKALE~1\Temp/ccAI76Wf.s 			page 4


 172 000c 00C0      		rjmp .L21
 173 000e 00C0      		rjmp .L21
 174 0010 00C0      		rjmp .L26
 175 0012 00C0      		rjmp .L27
 176 0014 00C0      		rjmp .L28
 177 0016 00C0      		rjmp .L29
 178 0018 00C0      		rjmp .L30
 179 001a 00C0      		rjmp .L21
 180 001c 00C0      		rjmp .L21
 181 001e 00C0      		rjmp .L21
 182 0020 00C0      		rjmp .L31
 183               		.text
 184               	.L22:
 185               	.LM24:
 186 00a8 80E0      		ldi r24,lo8(decodingstatus0)
 187 00aa 90E0      		ldi r25,hi8(decodingstatus0)
 188 00ac 00C0      		rjmp .L69
 189               	.L23:
 190               	.LM25:
 191 00ae 80E0      		ldi r24,lo8(decodingstatus1)
 192 00b0 90E0      		ldi r25,hi8(decodingstatus1)
 193 00b2 00C0      		rjmp .L69
 194               	.L24:
 195               	.LM26:
 196 00b4 80E0      		ldi r24,lo8(decodingstatus2)
 197 00b6 90E0      		ldi r25,hi8(decodingstatus2)
 198 00b8 00C0      		rjmp .L69
 199               	.L25:
 200               	.LM27:
 201 00ba 80E0      		ldi r24,lo8(decodingstatus3)
 202 00bc 90E0      		ldi r25,hi8(decodingstatus3)
 203 00be 00C0      		rjmp .L69
 204               	.L26:
 205               	.LM28:
 206 00c0 80E0      		ldi r24,lo8(decodingstatus8)
 207 00c2 90E0      		ldi r25,hi8(decodingstatus8)
 208 00c4 00C0      		rjmp .L69
 209               	.L27:
 210               	.LM29:
 211 00c6 80E0      		ldi r24,lo8(decodingstatus9)
 212 00c8 90E0      		ldi r25,hi8(decodingstatus9)
 213 00ca 00C0      		rjmp .L69
 214               	.L28:
 215               	.LM30:
 216 00cc 80E0      		ldi r24,lo8(decodingstatus10)
 217 00ce 90E0      		ldi r25,hi8(decodingstatus10)
 218 00d0 00C0      		rjmp .L69
 219               	.L29:
 220               	.LM31:
 221 00d2 80E0      		ldi r24,lo8(decodingstatus11)
 222 00d4 90E0      		ldi r25,hi8(decodingstatus11)
 223 00d6 00C0      		rjmp .L69
 224               	.L30:
 225               	.LM32:
 226 00d8 80E0      		ldi r24,lo8(decodingstatus12)
 227 00da 90E0      		ldi r25,hi8(decodingstatus12)
 228 00dc 00C0      		rjmp .L69
GAS LISTING C:\DOKUME~1\Romahn\LOKALE~1\Temp/ccAI76Wf.s 			page 5


 229               	.L31:
 230               	.LM33:
 231 00de 80E0      		ldi r24,lo8(decodingstatus16)
 232 00e0 90E0      		ldi r25,hi8(decodingstatus16)
 233 00e2 00C0      		rjmp .L69
 234               	.L21:
 235               	.LM34:
 236 00e4 80E0      		ldi r24,lo8(decodingstatusu)
 237 00e6 90E0      		ldi r25,hi8(decodingstatusu)
 238               	.L69:
 239 00e8 9093 0000 		sts (gpshealth)+1,r25
 240 00ec 8093 0000 		sts gpshealth,r24
 241               	.LBB46:
 242               	.LBB47:
 243               	.LM35:
 244               	/* #APP */
 245               	 ;  109 "main.c" 1
 246 00f0 F894      		cli
 247               	 ;  0 "" 2
 248               	.LM36:
 249               	/* #NOAPP */
 250 00f2 8091 0000 		lds r24,systime
 251 00f6 9091 0000 		lds r25,(systime)+1
 252               	.LVL2:
 253               	.LM37:
 254               	/* #APP */
 255               	 ;  111 "main.c" 1
 256 00fa 7894      		sei
 257               	 ;  0 "" 2
 258               	/* #NOAPP */
 259               	.LBE47:
 260               	.LBE46:
 261               	.LBB48:
 262               	.LBB49:
 263               	.LM38:
 264               	/* #APP */
 265               	 ;  109 "main.c" 1
 266 00fc F894      		cli
 267               	 ;  0 "" 2
 268               	.LM39:
 269               	/* #NOAPP */
 270 00fe 8091 0000 		lds r24,systime
 271 0102 9091 0000 		lds r25,(systime)+1
 272               	.LVL3:
 273               	.LM40:
 274               	/* #APP */
 275               	 ;  111 "main.c" 1
 276 0106 7894      		sei
 277               	 ;  0 "" 2
 278               	/* #NOAPP */
 279               	.LBE49:
 280               	.LBE48:
 281               	.LM41:
 282 0108 8770      		andi r24,lo8(7)
 283 010a 9070      		andi r25,hi8(7)
 284 010c 0397      		sbiw r24,3
 285 010e 04F4      		brge .L33
GAS LISTING C:\DOKUME~1\Romahn\LOKALE~1\Temp/ccAI76Wf.s 			page 6


 286               	.LM42:
 287 0110 8091 0000 		lds r24,tsipSTATUS+13
 288               	.LVL4:
 289 0114 E82F      		mov r30,r24
 290 0116 F0E0      		ldi r31,lo8(0)
 291 0118 EA30      		cpi r30,10
 292 011a F105      		cpc r31,__zero_reg__
 293 011c 00F4      		brsh .L34
 294 011e E050      		subi r30,lo8(-(gs(.L45)))
 295 0120 F040      		sbci r31,hi8(-(gs(.L45)))
 296 0122 0994      		ijmp
 297               		.data
 298               		.section .progmem.gcc_sw_table, "ax", @progbits
 299               		.p2align 1
 300               	.L45:
 301               		.data
 302               		.section .progmem.gcc_sw_table, "ax", @progbits
 303               		.p2align 1
 304 0022 00C0      		rjmp .L35
 305 0024 00C0      		rjmp .L36
 306 0026 00C0      		rjmp .L37
 307 0028 00C0      		rjmp .L38
 308 002a 00C0      		rjmp .L39
 309 002c 00C0      		rjmp .L40
 310 002e 00C0      		rjmp .L41
 311 0030 00C0      		rjmp .L42
 312 0032 00C0      		rjmp .L43
 313 0034 00C0      		rjmp .L44
 314               		.text
 315               	.L35:
 316               	.LM43:
 317 0124 80E0      		ldi r24,lo8(decodingactivity0)
 318 0126 90E0      		ldi r25,hi8(decodingactivity0)
 319 0128 00C0      		rjmp .L70
 320               	.L36:
 321               	.LM44:
 322 012a 80E0      		ldi r24,lo8(decodingactivity1)
 323 012c 90E0      		ldi r25,hi8(decodingactivity1)
 324 012e 00C0      		rjmp .L70
 325               	.L37:
 326               	.LM45:
 327 0130 80E0      		ldi r24,lo8(decodingactivity2)
 328 0132 90E0      		ldi r25,hi8(decodingactivity2)
 329 0134 00C0      		rjmp .L70
 330               	.L38:
 331               	.LM46:
 332 0136 80E0      		ldi r24,lo8(decodingactivity3)
 333 0138 90E0      		ldi r25,hi8(decodingactivity3)
 334 013a 00C0      		rjmp .L70
 335               	.L39:
 336               	.LM47:
 337 013c 80E0      		ldi r24,lo8(decodingactivity4)
 338 013e 90E0      		ldi r25,hi8(decodingactivity4)
 339 0140 00C0      		rjmp .L70
 340               	.L40:
 341               	.LM48:
 342 0142 80E0      		ldi r24,lo8(decodingactivity5)
GAS LISTING C:\DOKUME~1\Romahn\LOKALE~1\Temp/ccAI76Wf.s 			page 7


 343 0144 90E0      		ldi r25,hi8(decodingactivity5)
 344 0146 00C0      		rjmp .L70
 345               	.L41:
 346               	.LM49:
 347 0148 80E0      		ldi r24,lo8(decodingactivity6)
 348 014a 90E0      		ldi r25,hi8(decodingactivity6)
 349 014c 00C0      		rjmp .L70
 350               	.L42:
 351               	.LM50:
 352 014e 80E0      		ldi r24,lo8(decodingactivity7)
 353 0150 90E0      		ldi r25,hi8(decodingactivity7)
 354 0152 00C0      		rjmp .L70
 355               	.L43:
 356               	.LM51:
 357 0154 80E0      		ldi r24,lo8(decodingactivity8)
 358 0156 90E0      		ldi r25,hi8(decodingactivity8)
 359 0158 00C0      		rjmp .L70
 360               	.L44:
 361               	.LM52:
 362 015a 80E0      		ldi r24,lo8(decodingactivity9)
 363 015c 90E0      		ldi r25,hi8(decodingactivity9)
 364 015e 00C0      		rjmp .L70
 365               	.L34:
 366               	.LM53:
 367 0160 80E0      		ldi r24,lo8(decodingactivityu)
 368 0162 90E0      		ldi r25,hi8(decodingactivityu)
 369               	.L70:
 370 0164 9093 0000 		sts (gpshealth)+1,r25
 371 0168 8093 0000 		sts gpshealth,r24
 372               	.LVL5:
 373               	.L33:
 374               	.LM54:
 375 016c 9091 0000 		lds r25,tsipSTATUS+10
 376 0170 80E0      		ldi r24,lo8(0)
 377               	.LVL6:
 378 0172 2091 0000 		lds r18,tsipSTATUS+11
 379 0176 AC01      		movw r20,r24
 380 0178 420F      		add r20,r18
 381 017a 511D      		adc r21,__zero_reg__
 382 017c 5093 0000 		sts (minorwert)+1,r21
 383 0180 4093 0000 		sts minorwert,r20
 384               	.LM55:
 385 0184 4115      		cp r20,__zero_reg__
 386 0186 5105      		cpc r21,__zero_reg__
 387 0188 01F4      		brne .+2
 388 018a 00C0      		rjmp .L46
 389               	.LBB50:
 390               	.LBB51:
 391               	.LM56:
 392               	/* #APP */
 393               	 ;  109 "main.c" 1
 394 018c F894      		cli
 395               	 ;  0 "" 2
 396               	.LM57:
 397               	/* #NOAPP */
 398 018e 8091 0000 		lds r24,systime
 399 0192 9091 0000 		lds r25,(systime)+1
GAS LISTING C:\DOKUME~1\Romahn\LOKALE~1\Temp/ccAI76Wf.s 			page 8


 400               	.LVL7:
 401               	.LM58:
 402               	/* #APP */
 403               	 ;  111 "main.c" 1
 404 0196 7894      		sei
 405               	 ;  0 "" 2
 406               	/* #NOAPP */
 407               	.LBE51:
 408               	.LBE50:
 409               	.LM59:
 410 0198 8770      		andi r24,lo8(7)
 411 019a 9070      		andi r25,hi8(7)
 412 019c 0697      		sbiw r24,6
 413 019e 04F4      		brge .+2
 414 01a0 00C0      		rjmp .L46
 415               	.LM60:
 416 01a2 2091 0000 		lds r18,minorbit
 417 01a6 2F5F      		subi r18,lo8(-(1))
 418               	.LM61:
 419 01a8 61E0      		ldi r22,lo8(1)
 420 01aa 70E0      		ldi r23,hi8(1)
 421               	.L48:
 422               	.LM62:
 423 01ac 322F      		mov r19,r18
 424 01ae 3F5F      		subi r19,lo8(-(1))
 425               	.LM63:
 426 01b0 CB01      		movw r24,r22
 427               	.LVL8:
 428 01b2 022E      		mov r0,r18
 429 01b4 00C0      		rjmp 2f
 430 01b6 880F      	1:	lsl r24
 431 01b8 991F      		rol r25
 432 01ba 0A94      	2:	dec r0
 433 01bc 02F4      		brpl 1b
 434 01be 8423      		and r24,r20
 435 01c0 9523      		and r25,r21
 436 01c2 892B      		or r24,r25
 437 01c4 01F4      		brne .L47
 438 01c6 232F      		mov r18,r19
 439 01c8 00C0      		rjmp .L48
 440               	.L47:
 441 01ca 2093 0000 		sts minorbit,r18
 442               	.LM64:
 443 01ce E22F      		mov r30,r18
 444 01d0 F0E0      		ldi r31,lo8(0)
 445 01d2 ED30      		cpi r30,13
 446 01d4 F105      		cpc r31,__zero_reg__
 447 01d6 00F4      		brsh .L49
 448 01d8 E050      		subi r30,lo8(-(gs(.L63)))
 449 01da F040      		sbci r31,hi8(-(gs(.L63)))
 450 01dc 0994      		ijmp
 451               		.data
 452               		.section .progmem.gcc_sw_table, "ax", @progbits
 453               		.p2align 1
 454               	.L63:
 455               		.data
 456               		.section .progmem.gcc_sw_table, "ax", @progbits
GAS LISTING C:\DOKUME~1\Romahn\LOKALE~1\Temp/ccAI76Wf.s 			page 9


 457               		.p2align 1
 458 0036 00C0      		rjmp .L50
 459 0038 00C0      		rjmp .L51
 460 003a 00C0      		rjmp .L52
 461 003c 00C0      		rjmp .L53
 462 003e 00C0      		rjmp .L54
 463 0040 00C0      		rjmp .L55
 464 0042 00C0      		rjmp .L56
 465 0044 00C0      		rjmp .L57
 466 0046 00C0      		rjmp .L58
 467 0048 00C0      		rjmp .L59
 468 004a 00C0      		rjmp .L60
 469 004c 00C0      		rjmp .L61
 470 004e 00C0      		rjmp .L62
 471               		.text
 472               	.L50:
 473               	.LM65:
 474 01de 80E0      		ldi r24,lo8(decodingmalarm0)
 475 01e0 90E0      		ldi r25,hi8(decodingmalarm0)
 476 01e2 00C0      		rjmp .L71
 477               	.L51:
 478               	.LM66:
 479 01e4 80E0      		ldi r24,lo8(decodingmalarm1)
 480 01e6 90E0      		ldi r25,hi8(decodingmalarm1)
 481 01e8 00C0      		rjmp .L71
 482               	.L52:
 483               	.LM67:
 484 01ea 80E0      		ldi r24,lo8(decodingmalarm2)
 485 01ec 90E0      		ldi r25,hi8(decodingmalarm2)
 486 01ee 00C0      		rjmp .L71
 487               	.L53:
 488               	.LM68:
 489 01f0 80E0      		ldi r24,lo8(decodingmalarm3)
 490 01f2 90E0      		ldi r25,hi8(decodingmalarm3)
 491 01f4 00C0      		rjmp .L71
 492               	.L54:
 493               	.LM69:
 494 01f6 80E0      		ldi r24,lo8(decodingmalarm4)
 495 01f8 90E0      		ldi r25,hi8(decodingmalarm4)
 496 01fa 00C0      		rjmp .L71
 497               	.L55:
 498               	.LM70:
 499 01fc 80E0      		ldi r24,lo8(decodingmalarm5)
 500 01fe 90E0      		ldi r25,hi8(decodingmalarm5)
 501 0200 00C0      		rjmp .L71
 502               	.L56:
 503               	.LM71:
 504 0202 80E0      		ldi r24,lo8(decodingmalarm6)
 505 0204 90E0      		ldi r25,hi8(decodingmalarm6)
 506 0206 00C0      		rjmp .L71
 507               	.L57:
 508               	.LM72:
 509 0208 80E0      		ldi r24,lo8(decodingmalarm7)
 510 020a 90E0      		ldi r25,hi8(decodingmalarm7)
 511 020c 00C0      		rjmp .L71
 512               	.L58:
 513               	.LM73:
GAS LISTING C:\DOKUME~1\Romahn\LOKALE~1\Temp/ccAI76Wf.s 			page 10


 514 020e 80E0      		ldi r24,lo8(decodingmalarm8)
 515 0210 90E0      		ldi r25,hi8(decodingmalarm8)
 516 0212 00C0      		rjmp .L71
 517               	.L59:
 518               	.LM74:
 519 0214 80E0      		ldi r24,lo8(decodingmalarm9)
 520 0216 90E0      		ldi r25,hi8(decodingmalarm9)
 521 0218 00C0      		rjmp .L71
 522               	.L60:
 523               	.LM75:
 524 021a 80E0      		ldi r24,lo8(decodingmalarm10)
 525 021c 90E0      		ldi r25,hi8(decodingmalarm10)
 526 021e 00C0      		rjmp .L71
 527               	.L61:
 528               	.LM76:
 529 0220 80E0      		ldi r24,lo8(decodingmalarm11)
 530 0222 90E0      		ldi r25,hi8(decodingmalarm11)
 531               	.L71:
 532 0224 9093 0000 		sts (gpshealth)+1,r25
 533 0228 8093 0000 		sts gpshealth,r24
 534 022c 00C0      		rjmp .L46
 535               	.L62:
 536               	.LM77:
 537 022e 80E0      		ldi r24,lo8(decodingmalarm12)
 538 0230 90E0      		ldi r25,hi8(decodingmalarm12)
 539 0232 00C0      		rjmp .L71
 540               	.L49:
 541               	.LM78:
 542 0234 80E0      		ldi r24,lo8(decodingmalarmu)
 543 0236 90E0      		ldi r25,hi8(decodingmalarmu)
 544 0238 9093 0000 		sts (gpshealth)+1,r25
 545 023c 8093 0000 		sts gpshealth,r24
 546               	.LM79:
 547 0240 2D30      		cpi r18,lo8(13)
 548 0242 00F0      		brlo .L46
 549 0244 1092 0000 		sts minorbit,__zero_reg__
 550               	.LVL9:
 551               	.L46:
 552               	.LM80:
 553 0248 8091 0000 		lds r24,tsipSTATUS+8
 554               	.LVL10:
 555 024c 8823      		tst r24
 556 024e 01F4      		brne .L64
 557 0250 8091 0000 		lds r24,tsipSTATUS+9
 558 0254 8823      		tst r24
 559 0256 01F0      		breq .L65
 560               	.L64:
 561 0258 80E0      		ldi r24,lo8(criticalalarm)
 562 025a 90E0      		ldi r25,hi8(criticalalarm)
 563 025c 9093 0000 		sts (gpshealth)+1,r25
 564 0260 8093 0000 		sts gpshealth,r24
 565               	.L65:
 566               	.LM81:
 567 0264 1092 0000 		sts tsipSTATUS,__zero_reg__
 568 0268 81E0      		ldi r24,lo8(1)
 569               	.LM82:
 570 026a 0895      		ret
GAS LISTING C:\DOKUME~1\Romahn\LOKALE~1\Temp/ccAI76Wf.s 			page 11


 571               	.LFE11:
 572               		.size	tsipDecodeSTATUS, .-tsipDecodeSTATUS
 573               	.global	swap_uint16
 574               		.type	swap_uint16, @function
 575               	swap_uint16:
 576               	.LFB12:
 577               	.LM83:
 578               	.LVL11:
 579               	/* prologue: function */
 580               	/* frame size = 0 */
 581 026c 282F      		mov r18,r24
 582               	.LM84:
 583 026e 892F      		mov r24,r25
 584               	.LVL12:
 585 0270 922F      		mov r25,r18
 586               	.LVL13:
 587               	/* epilogue start */
 588 0272 0895      		ret
 589               	.LFE12:
 590               		.size	swap_uint16, .-swap_uint16
 591               	.global	swap_uint32
 592               		.type	swap_uint32, @function
 593               	swap_uint32:
 594               	.LFB13:
 595               	.LM85:
 596               	.LVL14:
 597               	/* prologue: function */
 598               	/* frame size = 0 */
 599 0274 9B01      		movw r18,r22
 600 0276 AC01      		movw r20,r24
 601               	.LM86:
 602 0278 B82F      		mov r27,r24
 603 027a A72F      		mov r26,r23
 604 027c 962F      		mov r25,r22
 605 027e 8827      		clr r24
 606 0280 8070      		andi r24,lo8(-16711936)
 607 0282 A070      		andi r26,hlo8(-16711936)
 608 0284 232F      		mov r18,r19
 609 0286 342F      		mov r19,r20
 610 0288 452F      		mov r20,r21
 611 028a 5527      		clr r21
 612 028c 3070      		andi r19,hi8(16711935)
 613 028e 5070      		andi r21,hhi8(16711935)
 614 0290 282B      		or r18,r24
 615 0292 392B      		or r19,r25
 616 0294 4A2B      		or r20,r26
 617 0296 5B2B      		or r21,r27
 618 0298 CA01      		movw r24,r20
 619 029a AA27      		clr r26
 620 029c BB27      		clr r27
 621 029e A901      		movw r20,r18
 622 02a0 3327      		clr r19
 623 02a2 2227      		clr r18
 624               	.LVL15:
 625 02a4 282B      		or r18,r24
 626 02a6 392B      		or r19,r25
 627 02a8 4A2B      		or r20,r26
GAS LISTING C:\DOKUME~1\Romahn\LOKALE~1\Temp/ccAI76Wf.s 			page 12


 628 02aa 5B2B      		or r21,r27
 629               	.LM87:
 630 02ac B901      		movw r22,r18
 631 02ae CA01      		movw r24,r20
 632               	/* epilogue start */
 633 02b0 0895      		ret
 634               	.LFE13:
 635               		.size	swap_uint32, .-swap_uint32
 636               	.global	DateToMjd
 637               		.type	DateToMjd, @function
 638               	DateToMjd:
 639               	.LFB14:
 640               	.LM88:
 641               	.LVL16:
 642 02b2 2F92      		push r2
 643 02b4 3F92      		push r3
 644 02b6 4F92      		push r4
 645 02b8 5F92      		push r5
 646 02ba 6F92      		push r6
 647 02bc 7F92      		push r7
 648 02be 8F92      		push r8
 649 02c0 9F92      		push r9
 650 02c2 AF92      		push r10
 651 02c4 BF92      		push r11
 652 02c6 CF92      		push r12
 653 02c8 DF92      		push r13
 654 02ca EF92      		push r14
 655               	.LVL17:
 656 02cc FF92      		push r15
 657 02ce 0F93      		push r16
 658 02d0 1F93      		push r17
 659               	/* prologue: function */
 660               	/* frame size = 0 */
 661 02d2 1B01      		movw r2,r22
 662 02d4 2C01      		movw r4,r24
 663 02d6 3901      		movw r6,r18
 664 02d8 4A01      		movw r8,r20
 665               	.LM89:
 666 02da 2FE6      		ldi r18,lo8(367)
 667 02dc 31E0      		ldi r19,hi8(367)
 668 02de 40E0      		ldi r20,hlo8(367)
 669 02e0 50E0      		ldi r21,hhi8(367)
 670               	.LVL18:
 671 02e2 00D0      		rcall __mulsi3
 672               	.LVL19:
 673 02e4 5B01      		movw r10,r22
 674 02e6 6C01      		movw r12,r24
 675 02e8 84EC      		ldi r24,lo8(-678972)
 676 02ea 93EA      		ldi r25,hi8(-678972)
 677 02ec A5EF      		ldi r26,hlo8(-678972)
 678 02ee BFEF      		ldi r27,hhi8(-678972)
 679 02f0 A80E      		add r10,r24
 680 02f2 B91E      		adc r11,r25
 681 02f4 CA1E      		adc r12,r26
 682 02f6 DB1E      		adc r13,r27
 683 02f8 AE0C      		add r10,r14
 684 02fa BF1C      		adc r11,r15
GAS LISTING C:\DOKUME~1\Romahn\LOKALE~1\Temp/ccAI76Wf.s 			page 13


 685 02fc C01E      		adc r12,r16
 686 02fe D11E      		adc r13,r17
 687               	.LVL20:
 688 0300 C401      		movw r24,r8
 689 0302 B301      		movw r22,r6
 690 0304 23E1      		ldi r18,lo8(275)
 691 0306 31E0      		ldi r19,hi8(275)
 692 0308 40E0      		ldi r20,hlo8(275)
 693 030a 50E0      		ldi r21,hhi8(275)
 694 030c 00D0      		rcall __mulsi3
 695 030e 29E0      		ldi r18,lo8(9)
 696 0310 30E0      		ldi r19,hi8(9)
 697 0312 40E0      		ldi r20,hlo8(9)
 698 0314 50E0      		ldi r21,hhi8(9)
 699 0316 00D0      		rcall __divmodsi4
 700 0318 A20E      		add r10,r18
 701 031a B31E      		adc r11,r19
 702 031c C41E      		adc r12,r20
 703 031e D51E      		adc r13,r21
 704 0320 89E0      		ldi r24,lo8(9)
 705 0322 90E0      		ldi r25,hi8(9)
 706 0324 A0E0      		ldi r26,hlo8(9)
 707 0326 B0E0      		ldi r27,hhi8(9)
 708 0328 680E      		add r6,r24
 709 032a 791E      		adc r7,r25
 710 032c 8A1E      		adc r8,r26
 711 032e 9B1E      		adc r9,r27
 712 0330 C401      		movw r24,r8
 713 0332 B301      		movw r22,r6
 714 0334 2CE0      		ldi r18,lo8(12)
 715 0336 30E0      		ldi r19,hi8(12)
 716 0338 40E0      		ldi r20,hlo8(12)
 717 033a 50E0      		ldi r21,hhi8(12)
 718 033c 00D0      		rcall __divmodsi4
 719 033e 220D      		add r18,r2
 720 0340 331D      		adc r19,r3
 721 0342 441D      		adc r20,r4
 722 0344 551D      		adc r21,r5
 723 0346 CA01      		movw r24,r20
 724 0348 B901      		movw r22,r18
 725 034a B3E0      		ldi r27,3
 726 034c 660F      	1:	lsl r22
 727 034e 771F      		rol r23
 728 0350 881F      		rol r24
 729 0352 991F      		rol r25
 730 0354 BA95      		dec r27
 731 0356 01F4      		brne 1b
 732 0358 621B      		sub r22,r18
 733 035a 730B      		sbc r23,r19
 734 035c 840B      		sbc r24,r20
 735 035e 950B      		sbc r25,r21
 736 0360 24E0      		ldi r18,lo8(4)
 737 0362 30E0      		ldi r19,hi8(4)
 738 0364 40E0      		ldi r20,hlo8(4)
 739 0366 50E0      		ldi r21,hhi8(4)
 740 0368 00D0      		rcall __divmodsi4
 741 036a A21A      		sub r10,r18
GAS LISTING C:\DOKUME~1\Romahn\LOKALE~1\Temp/ccAI76Wf.s 			page 14


 742 036c B30A      		sbc r11,r19
 743 036e C40A      		sbc r12,r20
 744 0370 D50A      		sbc r13,r21
 745 0372 8EEE      		ldi r24,lo8(-18)
 746 0374 9FEF      		ldi r25,hi8(-18)
 747 0376 AFEF      		ldi r26,hlo8(-18)
 748 0378 BFEF      		ldi r27,hhi8(-18)
 749 037a 680E      		add r6,r24
 750 037c 791E      		adc r7,r25
 751 037e 8A1E      		adc r8,r26
 752 0380 9B1E      		adc r9,r27
 753 0382 C401      		movw r24,r8
 754 0384 B301      		movw r22,r6
 755 0386 27E0      		ldi r18,lo8(7)
 756 0388 30E0      		ldi r19,hi8(7)
 757 038a 40E0      		ldi r20,hlo8(7)
 758 038c 50E0      		ldi r21,hhi8(7)
 759 038e 00D0      		rcall __divmodsi4
 760 0390 220D      		add r18,r2
 761 0392 331D      		adc r19,r3
 762 0394 441D      		adc r20,r4
 763 0396 551D      		adc r21,r5
 764 0398 CA01      		movw r24,r20
 765 039a B901      		movw r22,r18
 766 039c 24E6      		ldi r18,lo8(100)
 767 039e 30E0      		ldi r19,hi8(100)
 768 03a0 40E0      		ldi r20,hlo8(100)
 769 03a2 50E0      		ldi r21,hhi8(100)
 770 03a4 00D0      		rcall __divmodsi4
 771 03a6 2F5F      		subi r18,lo8(-(1))
 772 03a8 3F4F      		sbci r19,hi8(-(1))
 773 03aa 4F4F      		sbci r20,hlo8(-(1))
 774 03ac 5F4F      		sbci r21,hhi8(-(1))
 775 03ae CA01      		movw r24,r20
 776 03b0 B901      		movw r22,r18
 777 03b2 660F      		lsl r22
 778 03b4 771F      		rol r23
 779 03b6 881F      		rol r24
 780 03b8 991F      		rol r25
 781 03ba 620F      		add r22,r18
 782 03bc 731F      		adc r23,r19
 783 03be 841F      		adc r24,r20
 784 03c0 951F      		adc r25,r21
 785 03c2 24E0      		ldi r18,lo8(4)
 786 03c4 30E0      		ldi r19,hi8(4)
 787 03c6 40E0      		ldi r20,hlo8(4)
 788 03c8 50E0      		ldi r21,hhi8(4)
 789 03ca 00D0      		rcall __divmodsi4
 790 03cc A21A      		sub r10,r18
 791 03ce B30A      		sbc r11,r19
 792 03d0 C40A      		sbc r12,r20
 793 03d2 D50A      		sbc r13,r21
 794               	.LM90:
 795 03d4 B501      		movw r22,r10
 796 03d6 C601      		movw r24,r12
 797               	/* epilogue start */
 798 03d8 1F91      		pop r17
GAS LISTING C:\DOKUME~1\Romahn\LOKALE~1\Temp/ccAI76Wf.s 			page 15


 799 03da 0F91      		pop r16
 800 03dc FF90      		pop r15
 801 03de EF90      		pop r14
 802               	.LVL21:
 803 03e0 DF90      		pop r13
 804 03e2 CF90      		pop r12
 805 03e4 BF90      		pop r11
 806 03e6 AF90      		pop r10
 807 03e8 9F90      		pop r9
 808 03ea 8F90      		pop r8
 809 03ec 7F90      		pop r7
 810 03ee 6F90      		pop r6
 811               	.LVL22:
 812 03f0 5F90      		pop r5
 813 03f2 4F90      		pop r4
 814 03f4 3F90      		pop r3
 815 03f6 2F90      		pop r2
 816               	.LVL23:
 817 03f8 0895      		ret
 818               	.LFE14:
 819               		.size	DateToMjd, .-DateToMjd
 820               	.global	MjdToDate
 821               		.type	MjdToDate, @function
 822               	MjdToDate:
 823               	.LFB15:
 824               	.LM91:
 825               	.LVL24:
 826 03fa 2F92      		push r2
 827 03fc 3F92      		push r3
 828 03fe 4F92      		push r4
 829 0400 5F92      		push r5
 830 0402 6F92      		push r6
 831 0404 7F92      		push r7
 832 0406 8F92      		push r8
 833 0408 9F92      		push r9
 834 040a AF92      		push r10
 835 040c BF92      		push r11
 836 040e CF92      		push r12
 837 0410 DF92      		push r13
 838 0412 EF92      		push r14
 839 0414 FF92      		push r15
 840 0416 0F93      		push r16
 841               	.LVL25:
 842 0418 1F93      		push r17
 843 041a DF93      		push r29
 844 041c CF93      		push r28
 845 041e 00D0      		rcall .
 846 0420 00D0      		rcall .
 847 0422 00D0      		rcall .
 848 0424 CDB7      		in r28,__SP_L__
 849 0426 DEB7      		in r29,__SP_H__
 850               	/* prologue: function */
 851               	/* frame size = 6 */
 852 0428 5B01      		movw r10,r22
 853 042a 6C01      		movw r12,r24
 854               	.LVL26:
 855 042c 5E83      		std Y+6,r21
GAS LISTING C:\DOKUME~1\Romahn\LOKALE~1\Temp/ccAI76Wf.s 			page 16


 856 042e 4D83      		std Y+5,r20
 857 0430 1901      		movw r2,r18
 858 0432 2801      		movw r4,r16
 859               	.LVL27:
 860               	.LM92:
 861 0434 8AED      		ldi r24,lo8(2468570)
 862 0436 9AEA      		ldi r25,hi8(2468570)
 863 0438 A5E2      		ldi r26,hlo8(2468570)
 864 043a B0E0      		ldi r27,hhi8(2468570)
 865 043c A80E      		add r10,r24
 866 043e B91E      		adc r11,r25
 867 0440 CA1E      		adc r12,r26
 868 0442 DB1E      		adc r13,r27
 869               	.LM93:
 870 0444 C601      		movw r24,r12
 871 0446 B501      		movw r22,r10
 872               	.LVL28:
 873 0448 12E0      		ldi r17,2
 874 044a 660F      	1:	lsl r22
 875 044c 771F      		rol r23
 876 044e 881F      		rol r24
 877 0450 991F      		rol r25
 878 0452 1A95      		dec r17
 879 0454 01F4      		brne 1b
 880 0456 21EB      		ldi r18,lo8(146097)
 881 0458 3AE3      		ldi r19,hi8(146097)
 882 045a 42E0      		ldi r20,hlo8(146097)
 883 045c 50E0      		ldi r21,hhi8(146097)
 884               	.LVL29:
 885 045e 00D0      		rcall __divmodsi4
 886 0460 2983      		std Y+1,r18
 887 0462 3A83      		std Y+2,r19
 888 0464 4B83      		std Y+3,r20
 889               	.LVL30:
 890 0466 5C83      		std Y+4,r21
 891               	.LM94:
 892 0468 B901      		movw r22,r18
 893 046a CA01      		movw r24,r20
 894 046c 21EB      		ldi r18,lo8(146097)
 895 046e 3AE3      		ldi r19,hi8(146097)
 896 0470 42E0      		ldi r20,hlo8(146097)
 897 0472 50E0      		ldi r21,hhi8(146097)
 898 0474 00D0      		rcall __mulsi3
 899 0476 6D5F      		subi r22,lo8(-(3))
 900 0478 7F4F      		sbci r23,hi8(-(3))
 901 047a 8F4F      		sbci r24,hlo8(-(3))
 902 047c 9F4F      		sbci r25,hhi8(-(3))
 903 047e 24E0      		ldi r18,lo8(4)
 904 0480 30E0      		ldi r19,hi8(4)
 905 0482 40E0      		ldi r20,hlo8(4)
 906 0484 50E0      		ldi r21,hhi8(4)
 907 0486 00D0      		rcall __divmodsi4
 908 0488 A21A      		sub r10,r18
 909 048a B30A      		sbc r11,r19
 910 048c C40A      		sbc r12,r20
 911 048e D50A      		sbc r13,r21
 912               	.LVL31:
GAS LISTING C:\DOKUME~1\Romahn\LOKALE~1\Temp/ccAI76Wf.s 			page 17


 913               	.LM95:
 914 0490 0894      		sec
 915 0492 A11C      		adc r10,__zero_reg__
 916 0494 B11C      		adc r11,__zero_reg__
 917 0496 C11C      		adc r12,__zero_reg__
 918 0498 D11C      		adc r13,__zero_reg__
 919 049a C601      		movw r24,r12
 920 049c B501      		movw r22,r10
 921 049e 20EA      		ldi r18,lo8(4000)
 922 04a0 3FE0      		ldi r19,hi8(4000)
 923 04a2 40E0      		ldi r20,hlo8(4000)
 924 04a4 50E0      		ldi r21,hhi8(4000)
 925 04a6 00D0      		rcall __mulsi3
 926 04a8 29E0      		ldi r18,lo8(1461001)
 927 04aa 3BE4      		ldi r19,hi8(1461001)
 928 04ac 46E1      		ldi r20,hlo8(1461001)
 929 04ae 50E0      		ldi r21,hhi8(1461001)
 930 04b0 00D0      		rcall __divmodsi4
 931 04b2 3901      		movw r6,r18
 932 04b4 4A01      		movw r8,r20
 933               	.LM96:
 934 04b6 8EE1      		ldi r24,lo8(30)
 935 04b8 90E0      		ldi r25,hi8(30)
 936 04ba A0E0      		ldi r26,hlo8(30)
 937 04bc B0E0      		ldi r27,hhi8(30)
 938 04be A80E      		add r10,r24
 939 04c0 B91E      		adc r11,r25
 940 04c2 CA1E      		adc r12,r26
 941 04c4 DB1E      		adc r13,r27
 942               	.LVL32:
 943 04c6 C401      		movw r24,r8
 944 04c8 B301      		movw r22,r6
 945               	.LVL33:
 946 04ca 25EB      		ldi r18,lo8(1461)
 947 04cc 35E0      		ldi r19,hi8(1461)
 948 04ce 40E0      		ldi r20,hlo8(1461)
 949 04d0 50E0      		ldi r21,hhi8(1461)
 950 04d2 00D0      		rcall __mulsi3
 951 04d4 24E0      		ldi r18,lo8(4)
 952 04d6 30E0      		ldi r19,hi8(4)
 953 04d8 40E0      		ldi r20,hlo8(4)
 954 04da 50E0      		ldi r21,hhi8(4)
 955 04dc 00D0      		rcall __divmodsi4
 956 04de A21A      		sub r10,r18
 957 04e0 B30A      		sbc r11,r19
 958 04e2 C40A      		sbc r12,r20
 959 04e4 D50A      		sbc r13,r21
 960               	.LM97:
 961 04e6 C601      		movw r24,r12
 962 04e8 B501      		movw r22,r10
 963 04ea 20E5      		ldi r18,lo8(80)
 964 04ec 30E0      		ldi r19,hi8(80)
 965 04ee 40E0      		ldi r20,hlo8(80)
 966 04f0 50E0      		ldi r21,hhi8(80)
 967 04f2 00D0      		rcall __mulsi3
 968 04f4 2FE8      		ldi r18,lo8(2447)
 969 04f6 39E0      		ldi r19,hi8(2447)
GAS LISTING C:\DOKUME~1\Romahn\LOKALE~1\Temp/ccAI76Wf.s 			page 18


 970 04f8 40E0      		ldi r20,hlo8(2447)
 971 04fa 50E0      		ldi r21,hhi8(2447)
 972 04fc 00D0      		rcall __divmodsi4
 973 04fe 7901      		movw r14,r18
 974 0500 8A01      		movw r16,r20
 975               	.LVL34:
 976               	.LM98:
 977 0502 C801      		movw r24,r16
 978 0504 B701      		movw r22,r14
 979               	.LVL35:
 980 0506 2FE8      		ldi r18,lo8(2447)
 981 0508 39E0      		ldi r19,hi8(2447)
 982 050a 40E0      		ldi r20,hlo8(2447)
 983 050c 50E0      		ldi r21,hhi8(2447)
 984 050e 00D0      		rcall __mulsi3
 985 0510 20EB      		ldi r18,lo8(-80)
 986 0512 3FEF      		ldi r19,hi8(-80)
 987 0514 4FEF      		ldi r20,hlo8(-80)
 988 0516 5FEF      		ldi r21,hhi8(-80)
 989 0518 00D0      		rcall __divmodsi4
 990 051a A20E      		add r10,r18
 991 051c B31E      		adc r11,r19
 992 051e C41E      		adc r12,r20
 993 0520 D51E      		adc r13,r21
 994 0522 D201      		movw r26,r4
 995 0524 AD92      		st X+,r10
 996 0526 BD92      		st X+,r11
 997 0528 CD92      		st X+,r12
 998 052a DC92      		st X,r13
 999 052c 1397      		sbiw r26,3
 1000               	.LM99:
 1001 052e C801      		movw r24,r16
 1002 0530 B701      		movw r22,r14
 1003 0532 2BE0      		ldi r18,lo8(11)
 1004 0534 30E0      		ldi r19,hi8(11)
 1005 0536 40E0      		ldi r20,hlo8(11)
 1006 0538 50E0      		ldi r21,hhi8(11)
 1007 053a 00D0      		rcall __divmodsi4
 1008 053c 5901      		movw r10,r18
 1009               	.LVL36:
 1010 053e 6A01      		movw r12,r20
 1011               	.LM100:
 1012 0540 82E0      		ldi r24,lo8(2)
 1013 0542 90E0      		ldi r25,hi8(2)
 1014 0544 A0E0      		ldi r26,hlo8(2)
 1015 0546 B0E0      		ldi r27,hhi8(2)
 1016 0548 E80E      		add r14,r24
 1017 054a F91E      		adc r15,r25
 1018 054c 0A1F      		adc r16,r26
 1019 054e 1B1F      		adc r17,r27
 1020 0550 C601      		movw r24,r12
 1021 0552 B501      		movw r22,r10
 1022               	.LVL37:
 1023 0554 24EF      		ldi r18,lo8(-12)
 1024 0556 3FEF      		ldi r19,hi8(-12)
 1025 0558 4FEF      		ldi r20,hlo8(-12)
 1026 055a 5FEF      		ldi r21,hhi8(-12)
GAS LISTING C:\DOKUME~1\Romahn\LOKALE~1\Temp/ccAI76Wf.s 			page 19


 1027 055c 00D0      		rcall __mulsi3
 1028 055e E60E      		add r14,r22
 1029 0560 F71E      		adc r15,r23
 1030 0562 081F      		adc r16,r24
 1031 0564 191F      		adc r17,r25
 1032 0566 D101      		movw r26,r2
 1033 0568 ED92      		st X+,r14
 1034 056a FD92      		st X+,r15
 1035 056c 0D93      		st X+,r16
 1036 056e 1C93      		st X,r17
 1037 0570 1397      		sbiw r26,3
 1038               	.LM101:
 1039 0572 6981      		ldd r22,Y+1
 1040 0574 7A81      		ldd r23,Y+2
 1041 0576 8B81      		ldd r24,Y+3
 1042 0578 9C81      		ldd r25,Y+4
 1043 057a 24E6      		ldi r18,lo8(100)
 1044 057c 30E0      		ldi r19,hi8(100)
 1045 057e 40E0      		ldi r20,hlo8(100)
 1046 0580 50E0      		ldi r21,hhi8(100)
 1047 0582 00D0      		rcall __mulsi3
 1048 0584 6452      		subi r22,lo8(-(-4900))
 1049 0586 7341      		sbci r23,hi8(-(-4900))
 1050 0588 8040      		sbci r24,hlo8(-(-4900))
 1051 058a 9040      		sbci r25,hhi8(-(-4900))
 1052 058c 660E      		add r6,r22
 1053 058e 771E      		adc r7,r23
 1054 0590 881E      		adc r8,r24
 1055 0592 991E      		adc r9,r25
 1056 0594 A60C      		add r10,r6
 1057 0596 B71C      		adc r11,r7
 1058 0598 C81C      		adc r12,r8
 1059 059a D91C      		adc r13,r9
 1060 059c ED81      		ldd r30,Y+5
 1061 059e FE81      		ldd r31,Y+6
 1062 05a0 A082      		st Z,r10
 1063 05a2 B182      		std Z+1,r11
 1064 05a4 C282      		std Z+2,r12
 1065 05a6 D382      		std Z+3,r13
 1066               	/* epilogue start */
 1067               	.LM102:
 1068 05a8 2696      		adiw r28,6
 1069 05aa 0FB6      		in __tmp_reg__,__SREG__
 1070 05ac F894      		cli
 1071 05ae DEBF      		out __SP_H__,r29
 1072 05b0 0FBE      		out __SREG__,__tmp_reg__
 1073 05b2 CDBF      		out __SP_L__,r28
 1074 05b4 CF91      		pop r28
 1075 05b6 DF91      		pop r29
 1076 05b8 1F91      		pop r17
 1077 05ba 0F91      		pop r16
 1078 05bc FF90      		pop r15
 1079 05be EF90      		pop r14
 1080               	.LVL38:
 1081 05c0 DF90      		pop r13
 1082 05c2 CF90      		pop r12
 1083 05c4 BF90      		pop r11
GAS LISTING C:\DOKUME~1\Romahn\LOKALE~1\Temp/ccAI76Wf.s 			page 20


 1084 05c6 AF90      		pop r10
 1085               	.LVL39:
 1086 05c8 9F90      		pop r9
 1087 05ca 8F90      		pop r8
 1088 05cc 7F90      		pop r7
 1089 05ce 6F90      		pop r6
 1090               	.LVL40:
 1091 05d0 5F90      		pop r5
 1092 05d2 4F90      		pop r4
 1093               	.LVL41:
 1094 05d4 3F90      		pop r3
 1095 05d6 2F90      		pop r2
 1096               	.LVL42:
 1097 05d8 0895      		ret
 1098               	.LFE15:
 1099               		.size	MjdToDate, .-MjdToDate
 1100               	.global	GpsToMjd
 1101               		.type	GpsToMjd, @function
 1102               	GpsToMjd:
 1103               	.LFB16:
 1104               	.LM103:
 1105               	.LVL43:
 1106 05da 2F92      		push r2
 1107 05dc 3F92      		push r3
 1108 05de 4F92      		push r4
 1109 05e0 5F92      		push r5
 1110 05e2 6F92      		push r6
 1111 05e4 7F92      		push r7
 1112 05e6 8F92      		push r8
 1113 05e8 9F92      		push r9
 1114 05ea AF92      		push r10
 1115 05ec BF92      		push r11
 1116 05ee CF92      		push r12
 1117 05f0 DF92      		push r13
 1118 05f2 EF92      		push r14
 1119               	.LVL44:
 1120 05f4 FF92      		push r15
 1121 05f6 0F93      		push r16
 1122 05f8 1F93      		push r17
 1123 05fa DF93      		push r29
 1124 05fc CF93      		push r28
 1125 05fe 00D0      		rcall .
 1126 0600 00D0      		rcall .
 1127 0602 CDB7      		in r28,__SP_L__
 1128 0604 DEB7      		in r29,__SP_H__
 1129               	/* prologue: function */
 1130               	/* frame size = 4 */
 1131 0606 5B01      		movw r10,r22
 1132 0608 6C01      		movw r12,r24
 1133 060a 3901      		movw r6,r18
 1134 060c 4A01      		movw r8,r20
 1135 060e 1701      		movw r2,r14
 1136 0610 2801      		movw r4,r16
 1137               	.LVL45:
 1138               	.LM104:
 1139 0612 6CEB      		ldi r22,lo8(1980)
 1140 0614 77E0      		ldi r23,hi8(1980)
GAS LISTING C:\DOKUME~1\Romahn\LOKALE~1\Temp/ccAI76Wf.s 			page 21


 1141 0616 80E0      		ldi r24,hlo8(1980)
 1142 0618 90E0      		ldi r25,hhi8(1980)
 1143               	.LVL46:
 1144 061a 21E0      		ldi r18,lo8(1)
 1145 061c 30E0      		ldi r19,hi8(1)
 1146 061e 40E0      		ldi r20,hlo8(1)
 1147 0620 50E0      		ldi r21,hhi8(1)
 1148               	.LVL47:
 1149 0622 E6E0      		ldi r30,lo8(6)
 1150 0624 EE2E      		mov r14,r30
 1151 0626 F12C      		mov r15,__zero_reg__
 1152 0628 012D      		mov r16,__zero_reg__
 1153 062a 112D      		mov r17,__zero_reg__
 1154               	.LVL48:
 1155 062c 00D0      		rcall DateToMjd
 1156 062e 6983      		std Y+1,r22
 1157 0630 7A83      		std Y+2,r23
 1158 0632 8B83      		std Y+3,r24
 1159 0634 9C83      		std Y+4,r25
 1160 0636 9AE0      		ldi r25,10
 1161 0638 AA0C      	1:	lsl r10
 1162 063a BB1C      		rol r11
 1163 063c CC1C      		rol r12
 1164 063e DD1C      		rol r13
 1165 0640 9A95      		dec r25
 1166 0642 01F4      		brne 1b
 1167               	.LVL49:
 1168 0644 A60C      		add r10,r6
 1169 0646 B71C      		adc r11,r7
 1170 0648 C81C      		adc r12,r8
 1171 064a D91C      		adc r13,r9
 1172 064c 8601      		movw r16,r12
 1173 064e 7501      		movw r14,r10
 1174 0650 83E0      		ldi r24,3
 1175 0652 EE0C      	1:	lsl r14
 1176 0654 FF1C      		rol r15
 1177 0656 001F      		rol r16
 1178 0658 111F      		rol r17
 1179 065a 8A95      		dec r24
 1180 065c 01F4      		brne 1b
 1181 065e EA18      		sub r14,r10
 1182 0660 FB08      		sbc r15,r11
 1183 0662 0C09      		sbc r16,r12
 1184 0664 1D09      		sbc r17,r13
 1185 0666 C201      		movw r24,r4
 1186 0668 B101      		movw r22,r2
 1187 066a 20E8      		ldi r18,lo8(86400)
 1188 066c 31E5      		ldi r19,hi8(86400)
 1189 066e 41E0      		ldi r20,hlo8(86400)
 1190 0670 50E0      		ldi r21,hhi8(86400)
 1191 0672 00D0      		rcall __divmodsi4
 1192 0674 E20E      		add r14,r18
 1193 0676 F31E      		adc r15,r19
 1194 0678 041F      		adc r16,r20
 1195 067a 151F      		adc r17,r21
 1196 067c 8981      		ldd r24,Y+1
 1197 067e 9A81      		ldd r25,Y+2
GAS LISTING C:\DOKUME~1\Romahn\LOKALE~1\Temp/ccAI76Wf.s 			page 22


 1198 0680 AB81      		ldd r26,Y+3
 1199 0682 BC81      		ldd r27,Y+4
 1200 0684 E80E      		add r14,r24
 1201 0686 F91E      		adc r15,r25
 1202 0688 0A1F      		adc r16,r26
 1203 068a 1B1F      		adc r17,r27
 1204               	.LM105:
 1205 068c B701      		movw r22,r14
 1206 068e C801      		movw r24,r16
 1207               	/* epilogue start */
 1208 0690 0F90      		pop __tmp_reg__
 1209 0692 0F90      		pop __tmp_reg__
 1210 0694 0F90      		pop __tmp_reg__
 1211 0696 0F90      		pop __tmp_reg__
 1212 0698 CF91      		pop r28
 1213 069a DF91      		pop r29
 1214 069c 1F91      		pop r17
 1215 069e 0F91      		pop r16
 1216 06a0 FF90      		pop r15
 1217 06a2 EF90      		pop r14
 1218 06a4 DF90      		pop r13
 1219 06a6 CF90      		pop r12
 1220 06a8 BF90      		pop r11
 1221 06aa AF90      		pop r10
 1222 06ac 9F90      		pop r9
 1223 06ae 8F90      		pop r8
 1224 06b0 7F90      		pop r7
 1225 06b2 6F90      		pop r6
 1226               	.LVL50:
 1227 06b4 5F90      		pop r5
 1228 06b6 4F90      		pop r4
 1229 06b8 3F90      		pop r3
 1230 06ba 2F90      		pop r2
 1231               	.LVL51:
 1232 06bc 0895      		ret
 1233               	.LFE16:
 1234               		.size	GpsToMjd, .-GpsToMjd
 1235               	.global	dow
 1236               		.type	dow, @function
 1237               	dow:
 1238               	.LFB17:
 1239               	.LM106:
 1240               	.LVL52:
 1241 06be 1F93      		push r17
 1242               	/* prologue: function */
 1243               	/* frame size = 0 */
 1244 06c0 162F      		mov r17,r22
 1245               	.LM107:
 1246 06c2 60E0      		ldi r22,lo8(0)
 1247 06c4 70E0      		ldi r23,hi8(0)
 1248               	.LVL53:
 1249 06c6 1330      		cpi r17,lo8(3)
 1250 06c8 04F4      		brge .L85
 1251 06ca 61E0      		ldi r22,lo8(1)
 1252 06cc 70E0      		ldi r23,hi8(1)
 1253               	.L85:
 1254 06ce FC01      		movw r30,r24
GAS LISTING C:\DOKUME~1\Romahn\LOKALE~1\Temp/ccAI76Wf.s 			page 23


 1255 06d0 E61B      		sub r30,r22
 1256 06d2 F70B      		sbc r31,r23
 1257               	.LVL54:
 1258 06d4 242F      		mov r18,r20
 1259 06d6 3327      		clr r19
 1260 06d8 27FD      		sbrc r18,7
 1261 06da 3095      		com r19
 1262               	.LVL55:
 1263 06dc 2E0F      		add r18,r30
 1264 06de 3F1F      		adc r19,r31
 1265               	.LVL56:
 1266 06e0 CF01      		movw r24,r30
 1267 06e2 64E0      		ldi r22,lo8(4)
 1268 06e4 70E0      		ldi r23,hi8(4)
 1269 06e6 00D0      		rcall __divmodhi4
 1270 06e8 260F      		add r18,r22
 1271 06ea 371F      		adc r19,r23
 1272               	.LVL57:
 1273 06ec CF01      		movw r24,r30
 1274 06ee 6CE9      		ldi r22,lo8(-100)
 1275 06f0 7FEF      		ldi r23,hi8(-100)
 1276 06f2 00D0      		rcall __divmodhi4
 1277 06f4 260F      		add r18,r22
 1278 06f6 371F      		adc r19,r23
 1279               	.LVL58:
 1280 06f8 CF01      		movw r24,r30
 1281 06fa 60E9      		ldi r22,lo8(400)
 1282 06fc 71E0      		ldi r23,hi8(400)
 1283 06fe 00D0      		rcall __divmodhi4
 1284 0700 260F      		add r18,r22
 1285 0702 371F      		adc r19,r23
 1286               	.LVL59:
 1287 0704 E12F      		mov r30,r17
 1288 0706 FF27      		clr r31
 1289 0708 E7FD      		sbrc r30,7
 1290 070a F095      		com r31
 1291               	.LVL60:
 1292 070c E050      		subi r30,lo8(-(t.2151-1))
 1293 070e F040      		sbci r31,hi8(-(t.2151-1))
 1294               	.LVL61:
 1295 0710 8081      		ld r24,Z
 1296 0712 9927      		clr r25
 1297 0714 87FD      		sbrc r24,7
 1298 0716 9095      		com r25
 1299 0718 820F      		add r24,r18
 1300 071a 931F      		adc r25,r19
 1301 071c 67E0      		ldi r22,lo8(7)
 1302 071e 70E0      		ldi r23,hi8(7)
 1303 0720 00D0      		rcall __divmodhi4
 1304               	/* epilogue start */
 1305               	.LM108:
 1306 0722 1F91      		pop r17
 1307 0724 0895      		ret
 1308               	.LFE17:
 1309               		.size	dow, .-dow
 1310               	.global	hwinit
 1311               		.type	hwinit, @function
GAS LISTING C:\DOKUME~1\Romahn\LOKALE~1\Temp/ccAI76Wf.s 			page 24


 1312               	hwinit:
 1313               	.LFB19:
 1314               	.LM109:
 1315               	/* prologue: function */
 1316               	/* frame size = 0 */
 1317               	.LM110:
 1318 0726 10BC      		out 64-32,__zero_reg__
 1319               	.LM111:
 1320 0728 8DE4      		ldi r24,lo8(77)
 1321 072a 89B9      		out 41-32,r24
 1322               	.LM112:
 1323 072c 88EB      		ldi r24,lo8(-72)
 1324 072e 8AB9      		out 42-32,r24
 1325               	.LM113:
 1326 0730 1FBC      		out 79-32,__zero_reg__
 1327               	.LM114:
 1328 0732 84E0      		ldi r24,lo8(4)
 1329 0734 8EBD      		out 78-32,r24
 1330               	.LM115:
 1331 0736 85E0      		ldi r24,lo8(5)
 1332 0738 83BF      		out 83-32,r24
 1333               	.LM116:
 1334 073a 82E8      		ldi r24,lo8(-126)
 1335 073c 89BF      		out 89-32,r24
 1336               	.LM117:
 1337 073e 14BA      		out 52-32,__zero_reg__
 1338               	.LM118:
 1339 0740 8FEF      		ldi r24,lo8(-1)
 1340 0742 85BB      		out 53-32,r24
 1341               	/* epilogue start */
 1342               	.LM119:
 1343 0744 0895      		ret
 1344               	.LFE19:
 1345               		.size	hwinit, .-hwinit
 1346               	.global	__vector_7
 1347               		.type	__vector_7, @function
 1348               	__vector_7:
 1349               	.LFB21:
 1350               	.LM120:
 1351 0746 1F92      		push __zero_reg__
 1352 0748 0F92      		push r0
 1353 074a 0FB6      		in r0,__SREG__
 1354 074c 0F92      		push r0
 1355 074e 1124      		clr __zero_reg__
 1356 0750 8F93      		push r24
 1357               	/* prologue: Signal */
 1358               	/* frame size = 0 */
 1359               	.LM121:
 1360 0752 83EC      		ldi r24,lo8(-61)
 1361 0754 82BF      		out 82-32,r24
 1362               	.LM122:
 1363 0756 1092 0000 		sts key,__zero_reg__
 1364               	/* epilogue start */
 1365               	.LM123:
 1366 075a 8F91      		pop r24
 1367 075c 0F90      		pop r0
 1368 075e 0FBE      		out __SREG__,r0
GAS LISTING C:\DOKUME~1\Romahn\LOKALE~1\Temp/ccAI76Wf.s 			page 25


 1369 0760 0F90      		pop r0
 1370 0762 1F90      		pop __zero_reg__
 1371 0764 1895      		reti
 1372               	.LFE21:
 1373               		.size	__vector_7, .-__vector_7
 1374               	.global	__vector_6
 1375               		.type	__vector_6, @function
 1376               	__vector_6:
 1377               	.LFB22:
 1378               	.LM124:
 1379 0766 1F92      		push __zero_reg__
 1380 0768 0F92      		push r0
 1381 076a 0FB6      		in r0,__SREG__
 1382 076c 0F92      		push r0
 1383 076e 1124      		clr __zero_reg__
 1384 0770 8F93      		push r24
 1385 0772 9F93      		push r25
 1386               	/* prologue: Signal */
 1387               	/* frame size = 0 */
 1388               	.LM125:
 1389 0774 84EE      		ldi r24,lo8(18660)
 1390 0776 98E4      		ldi r25,hi8(18660)
 1391 0778 9DBD      		out (76)+1-32,r25
 1392 077a 8CBD      		out 76-32,r24
 1393               	.LM126:
 1394 077c 8091 0000 		lds r24,systime
 1395 0780 9091 0000 		lds r25,(systime)+1
 1396 0784 0196      		adiw r24,1
 1397 0786 9093 0000 		sts (systime)+1,r25
 1398 078a 8093 0000 		sts systime,r24
 1399               	.LM127:
 1400 078e 81E0      		ldi r24,lo8(1)
 1401 0790 8093 0000 		sts newsec,r24
 1402               	/* epilogue start */
 1403               	.LM128:
 1404 0794 9F91      		pop r25
 1405 0796 8F91      		pop r24
 1406 0798 0F90      		pop r0
 1407 079a 0FBE      		out __SREG__,r0
 1408 079c 0F90      		pop r0
 1409 079e 1F90      		pop __zero_reg__
 1410 07a0 1895      		reti
 1411               	.LFE22:
 1412               		.size	__vector_6, .-__vector_6
 1413               	.global	__vector_1
 1414               		.type	__vector_1, @function
 1415               	__vector_1:
 1416               	.LFB23:
 1417               	.LM129:
 1418 07a2 1F92      		push __zero_reg__
 1419 07a4 0F92      		push r0
 1420 07a6 0FB6      		in r0,__SREG__
 1421 07a8 0F92      		push r0
 1422 07aa 1124      		clr __zero_reg__
 1423               	/* prologue: Signal */
 1424               	/* frame size = 0 */
 1425               	/* epilogue start */
GAS LISTING C:\DOKUME~1\Romahn\LOKALE~1\Temp/ccAI76Wf.s 			page 26


 1426               	.LM130:
 1427 07ac 0F90      		pop r0
 1428 07ae 0FBE      		out __SREG__,r0
 1429 07b0 0F90      		pop r0
 1430 07b2 1F90      		pop __zero_reg__
 1431 07b4 1895      		reti
 1432               	.LFE23:
 1433               		.size	__vector_1, .-__vector_1
 1434               	.global	__vector_10
 1435               		.type	__vector_10, @function
 1436               	__vector_10:
 1437               	.LFB25:
 1438               	.LM131:
 1439 07b6 1F92      		push __zero_reg__
 1440 07b8 0F92      		push r0
 1441 07ba 0FB6      		in r0,__SREG__
 1442 07bc 0F92      		push r0
 1443 07be 1124      		clr __zero_reg__
 1444               	/* prologue: Signal */
 1445               	/* frame size = 0 */
 1446               	/* epilogue start */
 1447               	.LM132:
 1448 07c0 0F90      		pop r0
 1449 07c2 0FBE      		out __SREG__,r0
 1450 07c4 0F90      		pop r0
 1451 07c6 1F90      		pop __zero_reg__
 1452 07c8 1895      		reti
 1453               	.LFE25:
 1454               		.size	__vector_10, .-__vector_10
 1455               	.global	__vector_9
 1456               		.type	__vector_9, @function
 1457               	__vector_9:
 1458               	.LFB24:
 1459               	.LM133:
 1460 07ca 1F92      		push __zero_reg__
 1461 07cc 0F92      		push r0
 1462 07ce 0FB6      		in r0,__SREG__
 1463 07d0 0F92      		push r0
 1464 07d2 1124      		clr __zero_reg__
 1465 07d4 2F93      		push r18
 1466 07d6 8F93      		push r24
 1467 07d8 9F93      		push r25
 1468 07da AF93      		push r26
 1469 07dc BF93      		push r27
 1470 07de EF93      		push r30
 1471 07e0 FF93      		push r31
 1472               	/* prologue: Signal */
 1473               	/* frame size = 0 */
 1474               	.LM134:
 1475 07e2 8BB1      		in r24,43-32
 1476               	.LVL62:
 1477               	.LM135:
 1478 07e4 8C71      		andi r24,lo8(28)
 1479 07e6 01F0      		breq .L98
 1480               	.LM136:
 1481 07e8 8FEF      		ldi r24,lo8(-1)
 1482               	.LVL63:
GAS LISTING C:\DOKUME~1\Romahn\LOKALE~1\Temp/ccAI76Wf.s 			page 27


 1483 07ea 8093 0000 		sts rxBufLen.2332,r24
 1484               	.LVL64:
 1485               	.L98:
 1486               	.LM137:
 1487 07ee 9CB1      		in r25,44-32
 1488               	.LVL65:
 1489               	.LM138:
 1490 07f0 2091 0000 		lds r18,rxBufLen.2332
 1491 07f4 2F3F      		cpi r18,lo8(-1)
 1492 07f6 01F4      		brne .L99
 1493               	.LM139:
 1494 07f8 9031      		cpi r25,lo8(16)
 1495 07fa 01F0      		breq .+2
 1496 07fc 00C0      		rjmp .L109
 1497               	.LM140:
 1498 07fe 1092 0000 		sts rxBufLen.2332,__zero_reg__
 1499               	.LM141:
 1500 0802 1092 0000 		sts stuff.2331,__zero_reg__
 1501 0806 00C0      		rjmp .L109
 1502               	.L99:
 1503               	.LM142:
 1504 0808 8091 0000 		lds r24,stuff.2331
 1505 080c 8823      		tst r24
 1506 080e 01F4      		brne .+2
 1507 0810 00C0      		rjmp .L101
 1508 0812 9330      		cpi r25,lo8(3)
 1509 0814 01F0      		breq .+2
 1510 0816 00C0      		rjmp .L102
 1511               	.LM143:
 1512 0818 8091 0000 		lds r24,systime
 1513 081c 9091 0000 		lds r25,(systime)+1
 1514 0820 9093 0000 		sts (lastgpspkt)+1,r25
 1515 0824 8093 0000 		sts lastgpspkt,r24
 1516               	.LM144:
 1517 0828 8091 0000 		lds r24,rxBuffer
 1518 082c 8F38      		cpi r24,lo8(-113)
 1519 082e 01F4      		brne .L103
 1520               	.LM145:
 1521 0830 8091 0000 		lds r24,rxBuffer+1
 1522 0834 8C3A      		cpi r24,lo8(-84)
 1523 0836 01F4      		brne .L104
 1524 0838 2534      		cpi r18,lo8(69)
 1525 083a 01F4      		brne .L104
 1526 083c 8091 0000 		lds r24,tsipSTATUS
 1527 0840 8C3A      		cpi r24,lo8(-84)
 1528 0842 01F0      		breq .L104
 1529               	.LM146:
 1530 0844 A0E0      		ldi r26,lo8(tsipSTATUS)
 1531 0846 B0E0      		ldi r27,hi8(tsipSTATUS)
 1532 0848 E0E0      		ldi r30,lo8(rxBuffer+1)
 1533 084a F0E0      		ldi r31,hi8(rxBuffer+1)
 1534 084c 8EE0      		ldi r24,lo8(14)
 1535               	.L105:
 1536 084e 0190      		ld r0,Z+
 1537 0850 0D92      		st X+,r0
 1538 0852 8150      		subi r24,lo8(-(-1))
 1539 0854 01F4      		brne .L105
GAS LISTING C:\DOKUME~1\Romahn\LOKALE~1\Temp/ccAI76Wf.s 			page 28


 1540               	.L104:
 1541               	.LM147:
 1542 0856 8091 0000 		lds r24,rxBuffer+1
 1543 085a 8B3A      		cpi r24,lo8(-85)
 1544 085c 01F4      		brne .L103
 1545 085e 8091 0000 		lds r24,rxBufLen.2332
 1546 0862 8231      		cpi r24,lo8(18)
 1547 0864 01F4      		brne .L103
 1548 0866 8091 0000 		lds r24,tsipGPSTIME
 1549 086a 8B3A      		cpi r24,lo8(-85)
 1550 086c 01F0      		breq .L103
 1551               	.LM148:
 1552 086e A0E0      		ldi r26,lo8(tsipGPSTIME)
 1553 0870 B0E0      		ldi r27,hi8(tsipGPSTIME)
 1554 0872 E0E0      		ldi r30,lo8(rxBuffer+1)
 1555 0874 F0E0      		ldi r31,hi8(rxBuffer+1)
 1556 0876 82E1      		ldi r24,lo8(18)
 1557               	.L106:
 1558 0878 0190      		ld r0,Z+
 1559 087a 0D92      		st X+,r0
 1560 087c 8150      		subi r24,lo8(-(-1))
 1561 087e 01F4      		brne .L106
 1562               	.L103:
 1563               	.LM149:
 1564 0880 8091 0000 		lds r24,rxBuffer
 1565 0884 8D36      		cpi r24,lo8(109)
 1566 0886 01F4      		brne .L107
 1567 0888 8091 0000 		lds r24,rxBufLen.2332
 1568 088c 8330      		cpi r24,lo8(3)
 1569 088e 04F0      		brlt .L107
 1570 0890 8091 0000 		lds r24,tsipSATELLITE
 1571 0894 8D36      		cpi r24,lo8(109)
 1572 0896 01F0      		breq .L107
 1573               	.LM150:
 1574 0898 A0E0      		ldi r26,lo8(tsipSATELLITE)
 1575 089a B0E0      		ldi r27,hi8(tsipSATELLITE)
 1576 089c E0E0      		ldi r30,lo8(rxBuffer)
 1577 089e F0E0      		ldi r31,hi8(rxBuffer)
 1578 08a0 83E0      		ldi r24,lo8(3)
 1579               	.L108:
 1580 08a2 0190      		ld r0,Z+
 1581 08a4 0D92      		st X+,r0
 1582 08a6 8150      		subi r24,lo8(-(-1))
 1583 08a8 01F4      		brne .L108
 1584               	.L107:
 1585               	.LM151:
 1586 08aa 8FEF      		ldi r24,lo8(-1)
 1587 08ac 8093 0000 		sts rxBufLen.2332,r24
 1588 08b0 00C0      		rjmp .L109
 1589               	.L101:
 1590               	.LM152:
 1591 08b2 9031      		cpi r25,lo8(16)
 1592 08b4 01F4      		brne .L102
 1593               	.LM153:
 1594 08b6 81E0      		ldi r24,lo8(1)
 1595 08b8 8093 0000 		sts stuff.2331,r24
 1596 08bc 00C0      		rjmp .L109
GAS LISTING C:\DOKUME~1\Romahn\LOKALE~1\Temp/ccAI76Wf.s 			page 29


 1597               	.L102:
 1598               	.LM154:
 1599 08be 1092 0000 		sts stuff.2331,__zero_reg__
 1600               	.LM155:
 1601 08c2 2534      		cpi r18,lo8(69)
 1602 08c4 04F4      		brge .L109
 1603               	.LM156:
 1604 08c6 E22F      		mov r30,r18
 1605 08c8 FF27      		clr r31
 1606 08ca E7FD      		sbrc r30,7
 1607 08cc F095      		com r31
 1608 08ce E050      		subi r30,lo8(-(rxBuffer))
 1609 08d0 F040      		sbci r31,hi8(-(rxBuffer))
 1610 08d2 9083      		st Z,r25
 1611 08d4 2F5F      		subi r18,lo8(-(1))
 1612 08d6 2093 0000 		sts rxBufLen.2332,r18
 1613               	.L109:
 1614               	/* epilogue start */
 1615               	.LM157:
 1616 08da FF91      		pop r31
 1617 08dc EF91      		pop r30
 1618 08de BF91      		pop r27
 1619 08e0 AF91      		pop r26
 1620 08e2 9F91      		pop r25
 1621               	.LVL66:
 1622 08e4 8F91      		pop r24
 1623 08e6 2F91      		pop r18
 1624 08e8 0F90      		pop r0
 1625 08ea 0FBE      		out __SREG__,r0
 1626 08ec 0F90      		pop r0
 1627 08ee 1F90      		pop __zero_reg__
 1628 08f0 1895      		reti
 1629               	.LFE24:
 1630               		.size	__vector_9, .-__vector_9
 1631               		.data
 1632               	.LC0:
 1633 0000 2530 3275 		.string	"%02u:%02u:%02u%1s "
 1633      3A25 3032 
 1633      753A 2530 
 1633      3275 2531 
 1633      7320 00
 1634               	.LC1:
 1635 0013 2530 3275 		.string	"%02u   %02u"
 1635      2020 2025 
 1635      3032 7500 
 1636               	.LC2:
 1637 001f 2053 6174 		.string	" Sats:%1u"
 1637      733A 2531 
 1637      7500 
 1638               		.text
 1639               	.global	tsipDecodeGPSTIME
 1640               		.type	tsipDecodeGPSTIME, @function
 1641               	tsipDecodeGPSTIME:
 1642               	.LFB18:
 1643               	.LM158:
 1644 08f2 3F92      		push r3
 1645 08f4 4F92      		push r4
GAS LISTING C:\DOKUME~1\Romahn\LOKALE~1\Temp/ccAI76Wf.s 			page 30


 1646 08f6 5F92      		push r5
 1647 08f8 6F92      		push r6
 1648 08fa 7F92      		push r7
 1649 08fc 8F92      		push r8
 1650 08fe 9F92      		push r9
 1651 0900 AF92      		push r10
 1652 0902 BF92      		push r11
 1653 0904 CF92      		push r12
 1654 0906 DF92      		push r13
 1655 0908 EF92      		push r14
 1656 090a FF92      		push r15
 1657 090c 0F93      		push r16
 1658 090e 1F93      		push r17
 1659 0910 DF93      		push r29
 1660 0912 CF93      		push r28
 1661 0914 CDB7      		in r28,__SP_L__
 1662 0916 DEB7      		in r29,__SP_H__
 1663 0918 6197      		sbiw r28,17
 1664 091a 0FB6      		in __tmp_reg__,__SREG__
 1665 091c F894      		cli
 1666 091e DEBF      		out __SP_H__,r29
 1667 0920 0FBE      		out __SREG__,__tmp_reg__
 1668 0922 CDBF      		out __SP_L__,r28
 1669               	/* prologue: function */
 1670               	/* frame size = 17 */
 1671               	.LM159:
 1672 0924 80E0      		ldi r24,lo8(tsipGPSTIME)
 1673 0926 90E0      		ldi r25,hi8(tsipGPSTIME)
 1674 0928 9093 0000 		sts (gps_time)+1,r25
 1675 092c 8093 0000 		sts gps_time,r24
 1676               	.LM160:
 1677 0930 8091 0000 		lds r24,tsipGPSTIME
 1678 0934 8B3A      		cpi r24,lo8(-85)
 1679 0936 01F0      		breq .L114
 1680 0938 80E0      		ldi r24,lo8(0)
 1681 093a 00C0      		rjmp .L115
 1682               	.L114:
 1683               	.LM161:
 1684 093c 9091 0000 		lds r25,tsipGPSTIME+15
 1685 0940 8091 0000 		lds r24,tsipGPSTIME+16
 1686 0944 8093 0000 		sts tsipGPSTIME+15,r24
 1687 0948 9093 0000 		sts tsipGPSTIME+16,r25
 1688               	.LM162:
 1689 094c 87E4      		ldi r24,lo8(71)
 1690 094e 8983      		std Y+1,r24
 1691               	.LVL67:
 1692               	.LM163:
 1693 0950 8091 0000 		lds r24,tsipGPSTIME+9
 1694 0954 80FF      		sbrs r24,0
 1695 0956 00C0      		rjmp .L116
 1696 0958 85E5      		ldi r24,lo8(85)
 1697 095a 8983      		std Y+1,r24
 1698               	.LVL68:
 1699               	.L116:
 1700               	.LM164:
 1701 095c 9091 0000 		lds r25,tsipGPSTIME+7
 1702 0960 8091 0000 		lds r24,tsipGPSTIME+8
GAS LISTING C:\DOKUME~1\Romahn\LOKALE~1\Temp/ccAI76Wf.s 			page 31


 1703 0964 8093 0000 		sts tsipGPSTIME+7,r24
 1704 0968 9093 0000 		sts tsipGPSTIME+8,r25
 1705               	.LM165:
 1706 096c 9091 0000 		lds r25,tsipGPSTIME+5
 1707 0970 8091 0000 		lds r24,tsipGPSTIME+6
 1708 0974 8093 0000 		sts tsipGPSTIME+5,r24
 1709 0978 9093 0000 		sts tsipGPSTIME+6,r25
 1710               	.LM166:
 1711 097c 8091 0000 		lds r24,tsipGPSTIME+1
 1712 0980 9091 0000 		lds r25,(tsipGPSTIME+1)+1
 1713 0984 A091 0000 		lds r26,(tsipGPSTIME+1)+2
 1714 0988 B091 0000 		lds r27,(tsipGPSTIME+1)+3
 1715               	.LBB52:
 1716               	.LBB53:
 1717               	.LM167:
 1718 098c 292F      		mov r18,r25
 1719 098e 3A2F      		mov r19,r26
 1720 0990 4B2F      		mov r20,r27
 1721 0992 5527      		clr r21
 1722 0994 3070      		andi r19,hi8(16711935)
 1723 0996 5070      		andi r21,hhi8(16711935)
 1724 0998 BA2F      		mov r27,r26
 1725 099a A92F      		mov r26,r25
 1726 099c 982F      		mov r25,r24
 1727 099e 8827      		clr r24
 1728 09a0 8070      		andi r24,lo8(-16711936)
 1729 09a2 A070      		andi r26,hlo8(-16711936)
 1730 09a4 282B      		or r18,r24
 1731 09a6 392B      		or r19,r25
 1732 09a8 4A2B      		or r20,r26
 1733 09aa 5B2B      		or r21,r27
 1734 09ac CA01      		movw r24,r20
 1735 09ae AA27      		clr r26
 1736 09b0 BB27      		clr r27
 1737 09b2 A901      		movw r20,r18
 1738 09b4 3327      		clr r19
 1739 09b6 2227      		clr r18
 1740 09b8 282B      		or r18,r24
 1741 09ba 392B      		or r19,r25
 1742 09bc 4A2B      		or r20,r26
 1743 09be 5B2B      		or r21,r27
 1744               	.LBE53:
 1745               	.LBE52:
 1746               	.LM168:
 1747 09c0 2093 0000 		sts tsipGPSTIME+1,r18
 1748 09c4 3093 0000 		sts (tsipGPSTIME+1)+1,r19
 1749 09c8 4093 0000 		sts (tsipGPSTIME+1)+2,r20
 1750 09cc 5093 0000 		sts (tsipGPSTIME+1)+3,r21
 1751               	.LM169:
 1752 09d0 8090 0000 		lds r8,mez
 1753 09d4 9090 0000 		lds r9,(mez)+1
 1754 09d8 A090 0000 		lds r10,(mez)+2
 1755 09dc B090 0000 		lds r11,(mez)+3
 1756               	.LVL69:
 1757 09e0 8091 0000 		lds r24,dst
 1758 09e4 9091 0000 		lds r25,(dst)+1
 1759 09e8 A091 0000 		lds r26,(dst)+2
GAS LISTING C:\DOKUME~1\Romahn\LOKALE~1\Temp/ccAI76Wf.s 			page 32


 1760 09ec B091 0000 		lds r27,(dst)+3
 1761 09f0 880E      		add r8,r24
 1762 09f2 991E      		adc r9,r25
 1763 09f4 AA1E      		adc r10,r26
 1764 09f6 BB1E      		adc r11,r27
 1765 09f8 80E8      		ldi r24,lo8(604800)
 1766 09fa 9AE3      		ldi r25,hi8(604800)
 1767 09fc A9E0      		ldi r26,hlo8(604800)
 1768 09fe B0E0      		ldi r27,hhi8(604800)
 1769 0a00 880E      		add r8,r24
 1770 0a02 991E      		adc r9,r25
 1771 0a04 AA1E      		adc r10,r26
 1772 0a06 BB1E      		adc r11,r27
 1773 0a08 8091 0000 		lds r24,tsipGPSTIME+7
 1774 0a0c 9091 0000 		lds r25,(tsipGPSTIME+7)+1
 1775 0a10 AA27      		clr r26
 1776 0a12 97FD      		sbrc r25,7
 1777 0a14 A095      		com r26
 1778 0a16 BA2F      		mov r27,r26
 1779 0a18 881A      		sub r8,r24
 1780 0a1a 990A      		sbc r9,r25
 1781 0a1c AA0A      		sbc r10,r26
 1782 0a1e BB0A      		sbc r11,r27
 1783 0a20 820E      		add r8,r18
 1784 0a22 931E      		adc r9,r19
 1785 0a24 A41E      		adc r10,r20
 1786 0a26 B51E      		adc r11,r21
 1787               	.LM170:
 1788 0a28 2091 0000 		lds r18,tsipGPSTIME+5
 1789 0a2c 3091 0000 		lds r19,(tsipGPSTIME+5)+1
 1790 0a30 40E0      		ldi r20,lo8(0)
 1791 0a32 50E0      		ldi r21,hi8(0)
 1792 0a34 2150      		subi r18,lo8(-(-1))
 1793 0a36 3040      		sbci r19,hi8(-(-1))
 1794 0a38 4040      		sbci r20,hlo8(-(-1))
 1795 0a3a 5040      		sbci r21,hhi8(-(-1))
 1796 0a3c 60E0      		ldi r22,lo8(0)
 1797 0a3e 70E0      		ldi r23,hi8(0)
 1798 0a40 80E0      		ldi r24,hlo8(0)
 1799 0a42 90E0      		ldi r25,hhi8(0)
 1800 0a44 8501      		movw r16,r10
 1801 0a46 7401      		movw r14,r8
 1802 0a48 00D0      		rcall GpsToMjd
 1803 0a4a 6E87      		std Y+14,r22
 1804 0a4c 7F87      		std Y+15,r23
 1805 0a4e 888B      		std Y+16,r24
 1806 0a50 998B      		std Y+17,r25
 1807               	.LVL70:
 1808               	.LM171:
 1809 0a52 AE01      		movw r20,r28
 1810 0a54 4E5F      		subi r20,lo8(-(2))
 1811 0a56 5F4F      		sbci r21,hi8(-(2))
 1812 0a58 9E01      		movw r18,r28
 1813 0a5a 2A5F      		subi r18,lo8(-(6))
 1814 0a5c 3F4F      		sbci r19,hi8(-(6))
 1815 0a5e 8E01      		movw r16,r28
 1816 0a60 065F      		subi r16,lo8(-(10))
GAS LISTING C:\DOKUME~1\Romahn\LOKALE~1\Temp/ccAI76Wf.s 			page 33


 1817 0a62 1F4F      		sbci r17,hi8(-(10))
 1818 0a64 00D0      		rcall MjdToDate
 1819               	.LM172:
 1820 0a66 989B      		sbis 51-32,0
 1821 0a68 00C0      		rjmp .L117
 1822 0a6a 1092 0000 		sts mez,__zero_reg__
 1823 0a6e 1092 0000 		sts (mez)+1,__zero_reg__
 1824 0a72 1092 0000 		sts (mez)+2,__zero_reg__
 1825 0a76 1092 0000 		sts (mez)+3,__zero_reg__
 1826 0a7a 1092 0000 		sts dst,__zero_reg__
 1827 0a7e 1092 0000 		sts (dst)+1,__zero_reg__
 1828 0a82 1092 0000 		sts (dst)+2,__zero_reg__
 1829 0a86 1092 0000 		sts (dst)+3,__zero_reg__
 1830 0a8a 85E5      		ldi r24,lo8(85)
 1831 0a8c 8983      		std Y+1,r24
 1832               	.LVL71:
 1833               	.L117:
 1834               	.LM173:
 1835 0a8e 9899      		sbic 51-32,0
 1836 0a90 00C0      		rjmp .L118
 1837               	.LBB54:
 1838               	.LM174:
 1839 0a92 20E1      		ldi r18,lo8(3600)
 1840 0a94 3EE0      		ldi r19,hi8(3600)
 1841 0a96 40E0      		ldi r20,hlo8(3600)
 1842 0a98 50E0      		ldi r21,hhi8(3600)
 1843 0a9a 2093 0000 		sts mez,r18
 1844 0a9e 3093 0000 		sts (mez)+1,r19
 1845 0aa2 4093 0000 		sts (mez)+2,r20
 1846 0aa6 5093 0000 		sts (mez)+3,r21
 1847               	.LM175:
 1848 0aaa E091 0000 		lds r30,gps_time
 1849 0aae F091 0000 		lds r31,(gps_time)+1
 1850 0ab2 0785      		ldd r16,Z+15
 1851 0ab4 1089      		ldd r17,Z+16
 1852 0ab6 C801      		movw r24,r16
 1853 0ab8 63E0      		ldi r22,lo8(3)
 1854 0aba 4FE1      		ldi r20,lo8(31)
 1855 0abc 00D0      		rcall dow
 1856 0abe C82E      		mov r12,r24
 1857               	.LM176:
 1858 0ac0 C801      		movw r24,r16
 1859 0ac2 6AE0      		ldi r22,lo8(10)
 1860 0ac4 4FE1      		ldi r20,lo8(31)
 1861 0ac6 00D0      		rcall dow
 1862 0ac8 382E      		mov r3,r24
 1863               	.LM177:
 1864 0aca 4A80      		ldd r4,Y+2
 1865 0acc 5B80      		ldd r5,Y+3
 1866 0ace 6C80      		ldd r6,Y+4
 1867 0ad0 7D80      		ldd r7,Y+5
 1868               	.LVL72:
 1869 0ad2 DD24      		clr r13
 1870 0ad4 C7FC      		sbrc r12,7
 1871 0ad6 D094      		com r13
 1872 0ad8 BFE1      		ldi r27,lo8(31)
 1873 0ada EB2E      		mov r14,r27
GAS LISTING C:\DOKUME~1\Romahn\LOKALE~1\Temp/ccAI76Wf.s 			page 34


 1874 0adc F12C      		mov r15,__zero_reg__
 1875 0ade EC18      		sub r14,r12
 1876 0ae0 FD08      		sbc r15,r13
 1877 0ae2 0027      		clr r16
 1878 0ae4 F7FC      		sbrc r15,7
 1879 0ae6 0095      		com r16
 1880 0ae8 102F      		mov r17,r16
 1881 0aea C301      		movw r24,r6
 1882 0aec B201      		movw r22,r4
 1883 0aee 23E0      		ldi r18,lo8(3)
 1884 0af0 30E0      		ldi r19,hi8(3)
 1885 0af2 40E0      		ldi r20,hlo8(3)
 1886 0af4 50E0      		ldi r21,hhi8(3)
 1887 0af6 00D0      		rcall DateToMjd
 1888               	.LM178:
 1889 0af8 2E85      		ldd r18,Y+14
 1890 0afa 3F85      		ldd r19,Y+15
 1891 0afc 4889      		ldd r20,Y+16
 1892 0afe 5989      		ldd r21,Y+17
 1893 0b00 2617      		cp r18,r22
 1894 0b02 3707      		cpc r19,r23
 1895 0b04 4807      		cpc r20,r24
 1896 0b06 5907      		cpc r21,r25
 1897               	.LVL73:
 1898 0b08 04F0      		brlt .L119
 1899 0b0a 80E1      		ldi r24,lo8(3600)
 1900 0b0c 9EE0      		ldi r25,hi8(3600)
 1901 0b0e A0E0      		ldi r26,hlo8(3600)
 1902 0b10 B0E0      		ldi r27,hhi8(3600)
 1903 0b12 8093 0000 		sts dst,r24
 1904 0b16 9093 0000 		sts (dst)+1,r25
 1905 0b1a A093 0000 		sts (dst)+2,r26
 1906 0b1e B093 0000 		sts (dst)+3,r27
 1907 0b22 83E5      		ldi r24,lo8(83)
 1908 0b24 8983      		std Y+1,r24
 1909               	.LVL74:
 1910               	.L119:
 1911               	.LM179:
 1912 0b26 832D      		mov r24,r3
 1913 0b28 9927      		clr r25
 1914 0b2a 87FD      		sbrc r24,7
 1915 0b2c 9095      		com r25
 1916 0b2e AFE1      		ldi r26,lo8(31)
 1917 0b30 EA2E      		mov r14,r26
 1918 0b32 F12C      		mov r15,__zero_reg__
 1919 0b34 E81A      		sub r14,r24
 1920 0b36 F90A      		sbc r15,r25
 1921 0b38 0027      		clr r16
 1922 0b3a F7FC      		sbrc r15,7
 1923 0b3c 0095      		com r16
 1924 0b3e 102F      		mov r17,r16
 1925 0b40 C301      		movw r24,r6
 1926 0b42 B201      		movw r22,r4
 1927               	.LVL75:
 1928 0b44 2AE0      		ldi r18,lo8(10)
 1929 0b46 30E0      		ldi r19,hi8(10)
 1930 0b48 40E0      		ldi r20,hlo8(10)
GAS LISTING C:\DOKUME~1\Romahn\LOKALE~1\Temp/ccAI76Wf.s 			page 35


 1931 0b4a 50E0      		ldi r21,hhi8(10)
 1932 0b4c 00D0      		rcall DateToMjd
 1933               	.LM180:
 1934 0b4e 2E85      		ldd r18,Y+14
 1935 0b50 3F85      		ldd r19,Y+15
 1936 0b52 4889      		ldd r20,Y+16
 1937 0b54 5989      		ldd r21,Y+17
 1938 0b56 2617      		cp r18,r22
 1939 0b58 3707      		cpc r19,r23
 1940 0b5a 4807      		cpc r20,r24
 1941 0b5c 5907      		cpc r21,r25
 1942               	.LVL76:
 1943 0b5e 04F0      		brlt .L118
 1944 0b60 1092 0000 		sts dst,__zero_reg__
 1945 0b64 1092 0000 		sts (dst)+1,__zero_reg__
 1946 0b68 1092 0000 		sts (dst)+2,__zero_reg__
 1947 0b6c 1092 0000 		sts (dst)+3,__zero_reg__
 1948 0b70 8DE4      		ldi r24,lo8(77)
 1949 0b72 8983      		std Y+1,r24
 1950               	.LVL77:
 1951               	.L118:
 1952               	.LBE54:
 1953               	.LM181:
 1954 0b74 C090 0000 		lds r12,gps_time
 1955 0b78 D090 0000 		lds r13,(gps_time)+1
 1956 0b7c 8A81      		ldd r24,Y+2
 1957 0b7e 9B81      		ldd r25,Y+3
 1958 0b80 D601      		movw r26,r12
 1959 0b82 5096      		adiw r26,15+1
 1960 0b84 9C93      		st X,r25
 1961 0b86 8E93      		st -X,r24
 1962 0b88 1F97      		sbiw r26,15
 1963               	.LM182:
 1964 0b8a 8E81      		ldd r24,Y+6
 1965               	.LVL78:
 1966 0b8c 1E96      		adiw r26,14
 1967 0b8e 8C93      		st X,r24
 1968 0b90 1E97      		sbiw r26,14
 1969               	.LM183:
 1970 0b92 8A85      		ldd r24,Y+10
 1971               	.LVL79:
 1972 0b94 1D96      		adiw r26,13
 1973 0b96 8C93      		st X,r24
 1974               	.LM184:
 1975 0b98 C501      		movw r24,r10
 1976 0b9a B401      		movw r22,r8
 1977               	.LVL80:
 1978 0b9c 20E8      		ldi r18,lo8(86400)
 1979 0b9e 31E5      		ldi r19,hi8(86400)
 1980 0ba0 41E0      		ldi r20,hlo8(86400)
 1981 0ba2 50E0      		ldi r21,hhi8(86400)
 1982 0ba4 00D0      		rcall __divmodsi4
 1983 0ba6 7B01      		movw r14,r22
 1984 0ba8 8C01      		movw r16,r24
 1985               	.LM185:
 1986 0baa C801      		movw r24,r16
 1987 0bac B701      		movw r22,r14
GAS LISTING C:\DOKUME~1\Romahn\LOKALE~1\Temp/ccAI76Wf.s 			page 36


 1988               	.LVL81:
 1989 0bae 20E1      		ldi r18,lo8(3600)
 1990 0bb0 3EE0      		ldi r19,hi8(3600)
 1991 0bb2 40E0      		ldi r20,hlo8(3600)
 1992 0bb4 50E0      		ldi r21,hhi8(3600)
 1993 0bb6 00D0      		rcall __divmodsi4
 1994 0bb8 B22E      		mov r11,r18
 1995 0bba F601      		movw r30,r12
 1996 0bbc 2487      		std Z+12,r18
 1997               	.LM186:
 1998 0bbe 622F      		mov r22,r18
 1999 0bc0 70E0      		ldi r23,lo8(0)
 2000 0bc2 80E0      		ldi r24,lo8(0)
 2001 0bc4 90E0      		ldi r25,hi8(0)
 2002 0bc6 20EF      		ldi r18,lo8(-3600)
 2003 0bc8 31EF      		ldi r19,hi8(-3600)
 2004 0bca 4FEF      		ldi r20,hlo8(-3600)
 2005 0bcc 5FEF      		ldi r21,hhi8(-3600)
 2006 0bce 00D0      		rcall __mulsi3
 2007 0bd0 6E0D      		add r22,r14
 2008 0bd2 7F1D      		adc r23,r15
 2009 0bd4 801F      		adc r24,r16
 2010 0bd6 911F      		adc r25,r17
 2011 0bd8 2CE3      		ldi r18,lo8(60)
 2012 0bda 30E0      		ldi r19,hi8(60)
 2013 0bdc 40E0      		ldi r20,hlo8(60)
 2014 0bde 50E0      		ldi r21,hhi8(60)
 2015 0be0 00D0      		rcall __divmodsi4
 2016 0be2 D601      		movw r26,r12
 2017 0be4 1B96      		adiw r26,11
 2018 0be6 2C93      		st X,r18
 2019 0be8 1B97      		sbiw r26,11
 2020               	.LM187:
 2021 0bea B294      		swap r11
 2022 0bec F0EF      		ldi r31,lo8(-16)
 2023 0bee BF22      		and r11,r31
 2024 0bf0 EB18      		sub r14,r11
 2025               	.LVL82:
 2026 0bf2 8CE3      		ldi r24,lo8(60)
 2027 0bf4 289F      		mul r18,r24
 2028 0bf6 9001      		movw r18,r0
 2029 0bf8 1124      		clr r1
 2030 0bfa E21A      		sub r14,r18
 2031 0bfc 1A96      		adiw r26,10
 2032 0bfe EC92      		st X,r14
 2033               	.LM188:
 2034 0c00 EDB7      		in r30,__SP_L__
 2035 0c02 FEB7      		in r31,__SP_H__
 2036 0c04 3C97      		sbiw r30,12
 2037 0c06 0FB6      		in __tmp_reg__,__SREG__
 2038 0c08 F894      		cli
 2039 0c0a FEBF      		out __SP_H__,r31
 2040 0c0c 0FBE      		out __SREG__,__tmp_reg__
 2041 0c0e EDBF      		out __SP_L__,r30
 2042 0c10 3196      		adiw r30,1
 2043 0c12 00E0      		ldi r16,lo8(gpstime)
 2044 0c14 10E0      		ldi r17,hi8(gpstime)
GAS LISTING C:\DOKUME~1\Romahn\LOKALE~1\Temp/ccAI76Wf.s 			page 37


 2045 0c16 ADB7      		in r26,__SP_L__
 2046 0c18 BEB7      		in r27,__SP_H__
 2047 0c1a 1296      		adiw r26,1+1
 2048 0c1c 1C93      		st X,r17
 2049 0c1e 0E93      		st -X,r16
 2050 0c20 1197      		sbiw r26,1
 2051 0c22 80E0      		ldi r24,lo8(.LC0)
 2052 0c24 90E0      		ldi r25,hi8(.LC0)
 2053 0c26 9383      		std Z+3,r25
 2054 0c28 8283      		std Z+2,r24
 2055 0c2a D601      		movw r26,r12
 2056 0c2c 1C96      		adiw r26,12
 2057 0c2e 8C91      		ld r24,X
 2058 0c30 1C97      		sbiw r26,12
 2059 0c32 8483      		std Z+4,r24
 2060 0c34 1582      		std Z+5,__zero_reg__
 2061 0c36 1B96      		adiw r26,11
 2062 0c38 8C91      		ld r24,X
 2063 0c3a 8683      		std Z+6,r24
 2064 0c3c 1782      		std Z+7,__zero_reg__
 2065 0c3e E086      		std Z+8,r14
 2066 0c40 1186      		std Z+9,__zero_reg__
 2067 0c42 CE01      		movw r24,r28
 2068 0c44 0196      		adiw r24,1
 2069 0c46 9387      		std Z+11,r25
 2070 0c48 8287      		std Z+10,r24
 2071 0c4a 00D0      		rcall sprintf
 2072               	.LM189:
 2073 0c4c 2091 0000 		lds r18,satcount
 2074 0c50 EDB7      		in r30,__SP_L__
 2075 0c52 FEB7      		in r31,__SP_H__
 2076 0c54 3C96      		adiw r30,12
 2077 0c56 0FB6      		in __tmp_reg__,__SREG__
 2078 0c58 F894      		cli
 2079 0c5a FEBF      		out __SP_H__,r31
 2080 0c5c 0FBE      		out __SREG__,__tmp_reg__
 2081 0c5e EDBF      		out __SP_L__,r30
 2082 0c60 2223      		tst r18
 2083 0c62 01F0      		breq .+2
 2084 0c64 00C0      		rjmp .L120
 2085               	.LVL83:
 2086 0c66 4091 0000 		lds r20,gps_time
 2087 0c6a 5091 0000 		lds r21,(gps_time)+1
 2088 0c6e DA01      		movw r26,r20
 2089 0c70 1996      		adiw r26,9
 2090 0c72 8C91      		ld r24,X
 2091 0c74 82FD      		sbrc r24,2
 2092 0c76 00C0      		rjmp .L120
 2093               	.LM190:
 2094 0c78 3897      		sbiw r30,8
 2095 0c7a 0FB6      		in __tmp_reg__,__SREG__
 2096 0c7c F894      		cli
 2097 0c7e FEBF      		out __SP_H__,r31
 2098 0c80 0FBE      		out __SREG__,__tmp_reg__
 2099 0c82 EDBF      		out __SP_L__,r30
 2100 0c84 3196      		adiw r30,1
 2101 0c86 075F      		subi r16,lo8(-(9))
GAS LISTING C:\DOKUME~1\Romahn\LOKALE~1\Temp/ccAI76Wf.s 			page 38


 2102 0c88 1F4F      		sbci r17,hi8(-(9))
 2103 0c8a ADB7      		in r26,__SP_L__
 2104 0c8c BEB7      		in r27,__SP_H__
 2105 0c8e 1296      		adiw r26,1+1
 2106 0c90 1C93      		st X,r17
 2107 0c92 0E93      		st -X,r16
 2108 0c94 1197      		sbiw r26,1
 2109 0c96 80E0      		ldi r24,lo8(.LC1)
 2110 0c98 90E0      		ldi r25,hi8(.LC1)
 2111 0c9a 9383      		std Z+3,r25
 2112 0c9c 8283      		std Z+2,r24
 2113 0c9e DA01      		movw r26,r20
 2114 0ca0 1D96      		adiw r26,13
 2115 0ca2 8C91      		ld r24,X
 2116 0ca4 1D97      		sbiw r26,13
 2117 0ca6 8483      		std Z+4,r24
 2118 0ca8 1582      		std Z+5,__zero_reg__
 2119 0caa 1F96      		adiw r26,15
 2120 0cac 8D91      		ld r24,X+
 2121 0cae 9C91      		ld r25,X
 2122 0cb0 5097      		sbiw r26,15+1
 2123 0cb2 805D      		subi r24,lo8(-(-2000))
 2124 0cb4 9740      		sbci r25,hi8(-(-2000))
 2125 0cb6 9783      		std Z+7,r25
 2126 0cb8 8683      		std Z+6,r24
 2127 0cba 00D0      		rcall sprintf
 2128               	.LM191:
 2129 0cbc EDB7      		in r30,__SP_L__
 2130 0cbe FEB7      		in r31,__SP_H__
 2131 0cc0 3896      		adiw r30,8
 2132 0cc2 0FB6      		in __tmp_reg__,__SREG__
 2133 0cc4 F894      		cli
 2134 0cc6 FEBF      		out __SP_H__,r31
 2135 0cc8 0FBE      		out __SREG__,__tmp_reg__
 2136 0cca EDBF      		out __SP_L__,r30
 2137 0ccc E091 0000 		lds r30,gps_time
 2138 0cd0 F091 0000 		lds r31,(gps_time)+1
 2139 0cd4 6685      		ldd r22,Z+14
 2140 0cd6 83E0      		ldi r24,lo8(3)
 2141 0cd8 689F      		mul r22,r24
 2142 0cda B001      		movw r22,r0
 2143 0cdc 1124      		clr r1
 2144 0cde 6050      		subi r22,lo8(-(months))
 2145 0ce0 7040      		sbci r23,hi8(-(months))
 2146 0ce2 C801      		movw r24,r16
 2147 0ce4 0296      		adiw r24,2
 2148 0ce6 43E0      		ldi r20,lo8(3)
 2149 0ce8 50E0      		ldi r21,hi8(3)
 2150 0cea 00D0      		rcall strncpy_P
 2151 0cec 00C0      		rjmp .L121
 2152               	.L120:
 2153               	.LM192:
 2154 0cee 00D0      		rcall .
 2155 0cf0 00D0      		rcall .
 2156 0cf2 00D0      		rcall .
 2157 0cf4 EDB7      		in r30,__SP_L__
 2158 0cf6 FEB7      		in r31,__SP_H__
GAS LISTING C:\DOKUME~1\Romahn\LOKALE~1\Temp/ccAI76Wf.s 			page 39


 2159 0cf8 3196      		adiw r30,1
 2160 0cfa 80E0      		ldi r24,lo8(gpstime+9)
 2161 0cfc 90E0      		ldi r25,hi8(gpstime+9)
 2162 0cfe ADB7      		in r26,__SP_L__
 2163 0d00 BEB7      		in r27,__SP_H__
 2164 0d02 1296      		adiw r26,1+1
 2165 0d04 9C93      		st X,r25
 2166 0d06 8E93      		st -X,r24
 2167 0d08 1197      		sbiw r26,1
 2168 0d0a 80E0      		ldi r24,lo8(.LC2)
 2169 0d0c 90E0      		ldi r25,hi8(.LC2)
 2170 0d0e 9383      		std Z+3,r25
 2171 0d10 8283      		std Z+2,r24
 2172 0d12 2483      		std Z+4,r18
 2173 0d14 1582      		std Z+5,__zero_reg__
 2174 0d16 00D0      		rcall sprintf
 2175 0d18 EDB7      		in r30,__SP_L__
 2176 0d1a FEB7      		in r31,__SP_H__
 2177 0d1c 3696      		adiw r30,6
 2178 0d1e 0FB6      		in __tmp_reg__,__SREG__
 2179 0d20 F894      		cli
 2180 0d22 FEBF      		out __SP_H__,r31
 2181 0d24 0FBE      		out __SREG__,__tmp_reg__
 2182 0d26 EDBF      		out __SP_L__,r30
 2183               	.L121:
 2184               	.LM193:
 2185 0d28 1092 0000 		sts satcount,__zero_reg__
 2186               	.LM194:
 2187 0d2c 1092 0000 		sts tsipGPSTIME,__zero_reg__
 2188 0d30 81E0      		ldi r24,lo8(1)
 2189               	.L115:
 2190               	/* epilogue start */
 2191               	.LM195:
 2192 0d32 6196      		adiw r28,17
 2193 0d34 0FB6      		in __tmp_reg__,__SREG__
 2194 0d36 F894      		cli
 2195 0d38 DEBF      		out __SP_H__,r29
 2196 0d3a 0FBE      		out __SREG__,__tmp_reg__
 2197 0d3c CDBF      		out __SP_L__,r28
 2198 0d3e CF91      		pop r28
 2199 0d40 DF91      		pop r29
 2200 0d42 1F91      		pop r17
 2201 0d44 0F91      		pop r16
 2202 0d46 FF90      		pop r15
 2203 0d48 EF90      		pop r14
 2204 0d4a DF90      		pop r13
 2205 0d4c CF90      		pop r12
 2206 0d4e BF90      		pop r11
 2207 0d50 AF90      		pop r10
 2208 0d52 9F90      		pop r9
 2209 0d54 8F90      		pop r8
 2210               	.LVL84:
 2211 0d56 7F90      		pop r7
 2212 0d58 6F90      		pop r6
 2213 0d5a 5F90      		pop r5
 2214 0d5c 4F90      		pop r4
 2215 0d5e 3F90      		pop r3
GAS LISTING C:\DOKUME~1\Romahn\LOKALE~1\Temp/ccAI76Wf.s 			page 40


 2216 0d60 0895      		ret
 2217               	.LFE18:
 2218               		.size	tsipDecodeGPSTIME, .-tsipDecodeGPSTIME
 2219               	.global	main
 2220               		.type	main, @function
 2221               	main:
 2222               	.LFB20:
 2223               	.LM196:
 2224               	/* prologue: function */
 2225               	/* frame size = 0 */
 2226               	.LM197:
 2227 0d62 88EE      		ldi r24,lo8(1000)
 2228 0d64 93E0      		ldi r25,hi8(1000)
 2229               	.LVL85:
 2230               	.LBB55:
 2231               	.LBB56:
 2232               	.LBB57:
 2233               	.LBB58:
 2234               	.LM198:
 2235 0d66 2CE2      		ldi r18,lo8(300)
 2236 0d68 31E0      		ldi r19,hi8(300)
 2237               	.L124:
 2238 0d6a F901      		movw r30,r18
 2239               	.LVL86:
 2240               	/* #APP */
 2241               	 ;  105 "d:/avr/winavr20100110/lib/gcc/../../avr/include/util/delay_basic.h" 1
 2242 0d6c 3197      		1: sbiw r30,1
 2243 0d6e 01F4      		brne 1b
 2244               	 ;  0 "" 2
 2245               	/* #NOAPP */
 2246               	.LBE58:
 2247               	.LBE57:
 2248               	.LM199:
 2249 0d70 0197      		sbiw r24,1
 2250               	.LM200:
 2251 0d72 01F4      		brne .L124
 2252               	.LBE56:
 2253               	.LBE55:
 2254               	.LM201:
 2255 0d74 00D0      		rcall hwinit
 2256               	.LVL87:
 2257 0d76 88EE      		ldi r24,lo8(1000)
 2258 0d78 93E0      		ldi r25,hi8(1000)
 2259               	.LVL88:
 2260               	.LBB59:
 2261               	.LBB60:
 2262               	.LBB61:
 2263               	.LBB62:
 2264               	.LM202:
 2265 0d7a 2CE2      		ldi r18,lo8(300)
 2266 0d7c 31E0      		ldi r19,hi8(300)
 2267               	.L125:
 2268 0d7e F901      		movw r30,r18
 2269               	.LVL89:
 2270               	/* #APP */
 2271               	 ;  105 "d:/avr/winavr20100110/lib/gcc/../../avr/include/util/delay_basic.h" 1
 2272 0d80 3197      		1: sbiw r30,1
GAS LISTING C:\DOKUME~1\Romahn\LOKALE~1\Temp/ccAI76Wf.s 			page 41


 2273 0d82 01F4      		brne 1b
 2274               	 ;  0 "" 2
 2275               	/* #NOAPP */
 2276               	.LBE62:
 2277               	.LBE61:
 2278               	.LM203:
 2279 0d84 0197      		sbiw r24,1
 2280               	.LM204:
 2281 0d86 01F4      		brne .L125
 2282               	.LBE60:
 2283               	.LBE59:
 2284               	.LM205:
 2285 0d88 8CE0      		ldi r24,lo8(12)
 2286               	.LVL90:
 2287 0d8a 00D0      		rcall lcd_init
 2288               	.LVL91:
 2289               	.LM206:
 2290 0d8c 00D0      		rcall lcd_clrscr
 2291               	.LM207:
 2292 0d8e 80E0      		ldi r24,lo8(__c.2286)
 2293 0d90 90E0      		ldi r25,hi8(__c.2286)
 2294 0d92 00D0      		rcall lcd_puts_p
 2295 0d94 80E2      		ldi r24,lo8(20000)
 2296 0d96 9EE4      		ldi r25,hi8(20000)
 2297               	.LVL92:
 2298               	.LBB63:
 2299               	.LBB64:
 2300               	.LBB65:
 2301               	.LBB66:
 2302               	.LM208:
 2303 0d98 2CE2      		ldi r18,lo8(300)
 2304 0d9a 31E0      		ldi r19,hi8(300)
 2305               	.L126:
 2306 0d9c F901      		movw r30,r18
 2307               	.LVL93:
 2308               	/* #APP */
 2309               	 ;  105 "d:/avr/winavr20100110/lib/gcc/../../avr/include/util/delay_basic.h" 1
 2310 0d9e 3197      		1: sbiw r30,1
 2311 0da0 01F4      		brne 1b
 2312               	 ;  0 "" 2
 2313               	/* #NOAPP */
 2314               	.LBE66:
 2315               	.LBE65:
 2316               	.LM209:
 2317 0da2 0197      		sbiw r24,1
 2318               	.LM210:
 2319 0da4 01F4      		brne .L126
 2320               	.LBE64:
 2321               	.LBE63:
 2322               	.LM211:
 2323               	/* #APP */
 2324               	 ;  547 "main.c" 1
 2325 0da6 7894      		sei
 2326               	 ;  0 "" 2
 2327               	/* #NOAPP */
 2328               	.L136:
 2329               	.LM212:
GAS LISTING C:\DOKUME~1\Romahn\LOKALE~1\Temp/ccAI76Wf.s 			page 42


 2330               	/* #APP */
 2331               	 ;  551 "main.c" 1
 2332 0da8 A895      		wdr
 2333               	 ;  0 "" 2
 2334               	/* #NOAPP */
 2335               	.LBB67:
 2336               	.LBB68:
 2337               	.LM213:
 2338               	/* #APP */
 2339               	 ;  109 "main.c" 1
 2340 0daa F894      		cli
 2341               	 ;  0 "" 2
 2342               	.LM214:
 2343               	/* #NOAPP */
 2344 0dac 2091 0000 		lds r18,systime
 2345 0db0 3091 0000 		lds r19,(systime)+1
 2346               	.LVL94:
 2347               	.LM215:
 2348               	/* #APP */
 2349               	 ;  111 "main.c" 1
 2350 0db4 7894      		sei
 2351               	 ;  0 "" 2
 2352               	/* #NOAPP */
 2353               	.LBE68:
 2354               	.LBE67:
 2355               	.LM216:
 2356 0db6 8091 0000 		lds r24,lastgpspkt
 2357 0dba 9091 0000 		lds r25,(lastgpspkt)+1
 2358               	.LVL95:
 2359 0dbe 0296      		adiw r24,2
 2360 0dc0 8217      		cp r24,r18
 2361 0dc2 9307      		cpc r25,r19
 2362 0dc4 04F4      		brge .L127
 2363 0dc6 8091 0000 		lds r24,newsec
 2364 0dca 8823      		tst r24
 2365 0dcc 01F0      		breq .L127
 2366               	.LM217:
 2367 0dce 00D0      		rcall lcd_clrscr
 2368               	.LVL96:
 2369               	.LM218:
 2370 0dd0 80E0      		ldi r24,lo8(__c.2288)
 2371 0dd2 90E0      		ldi r25,hi8(__c.2288)
 2372 0dd4 00D0      		rcall lcd_puts_p
 2373               	.LM219:
 2374 0dd6 80E0      		ldi r24,lo8(0)
 2375 0dd8 61E0      		ldi r22,lo8(1)
 2376 0dda 00D0      		rcall lcd_gotoxy
 2377               	.LM220:
 2378 0ddc 80E0      		ldi r24,lo8(__c.2290)
 2379 0dde 90E0      		ldi r25,hi8(__c.2290)
 2380 0de0 00D0      		rcall lcd_puts_p
 2381               	.LBB69:
 2382               	.LBB70:
 2383               	.LM221:
 2384               	/* #APP */
 2385               	 ;  109 "main.c" 1
 2386 0de2 F894      		cli
GAS LISTING C:\DOKUME~1\Romahn\LOKALE~1\Temp/ccAI76Wf.s 			page 43


 2387               	 ;  0 "" 2
 2388               	.LM222:
 2389               	/* #NOAPP */
 2390 0de4 8091 0000 		lds r24,systime
 2391 0de8 9091 0000 		lds r25,(systime)+1
 2392               	.LVL97:
 2393               	.LM223:
 2394               	/* #APP */
 2395               	 ;  111 "main.c" 1
 2396 0dec 7894      		sei
 2397               	 ;  0 "" 2
 2398               	/* #NOAPP */
 2399               	.LBE70:
 2400               	.LBE69:
 2401               	.LM224:
 2402 0dee 2091 0000 		lds r18,lastgpspkt
 2403 0df2 3091 0000 		lds r19,(lastgpspkt)+1
 2404 0df6 821B      		sub r24,r18
 2405 0df8 930B      		sbc r25,r19
 2406               	.LVL98:
 2407 0dfa 60E0      		ldi r22,lo8(lcdScreen)
 2408 0dfc 70E0      		ldi r23,hi8(lcdScreen)
 2409 0dfe 4AE0      		ldi r20,lo8(10)
 2410 0e00 50E0      		ldi r21,hi8(10)
 2411 0e02 00D0      		rcall itoa
 2412               	.LM225:
 2413 0e04 8AE0      		ldi r24,lo8(10)
 2414 0e06 61E0      		ldi r22,lo8(1)
 2415 0e08 00D0      		rcall lcd_gotoxy
 2416               	.LM226:
 2417 0e0a 80E0      		ldi r24,lo8(lcdScreen)
 2418 0e0c 90E0      		ldi r25,hi8(lcdScreen)
 2419 0e0e 00D0      		rcall lcd_puts
 2420               	.LM227:
 2421 0e10 1092 0000 		sts satcount,__zero_reg__
 2422               	.LM228:
 2423 0e14 1092 0000 		sts newsec,__zero_reg__
 2424               	.LVL99:
 2425               	.L127:
 2426               	.LM229:
 2427 0e18 00D0      		rcall tsipDecodeSTATUS
 2428               	.LVL100:
 2429 0e1a 8823      		tst r24
 2430 0e1c 01F0      		breq .L128
 2431 0e1e 8091 0000 		lds r24,gpshealth
 2432 0e22 9091 0000 		lds r25,(gpshealth)+1
 2433 0e26 892B      		or r24,r25
 2434 0e28 01F0      		breq .L128
 2435               	.LM230:
 2436 0e2a 80E0      		ldi r24,lo8(0)
 2437 0e2c 61E0      		ldi r22,lo8(1)
 2438 0e2e 00D0      		rcall lcd_gotoxy
 2439               	.LM231:
 2440 0e30 8091 0000 		lds r24,gpshealth
 2441 0e34 9091 0000 		lds r25,(gpshealth)+1
 2442 0e38 00D0      		rcall lcd_puts_p
 2443               	.LM232:
GAS LISTING C:\DOKUME~1\Romahn\LOKALE~1\Temp/ccAI76Wf.s 			page 44


 2444 0e3a 8091 0000 		lds r24,tsipSTATUS+9
 2445 0e3e 8823      		tst r24
 2446 0e40 01F0      		breq .L128
 2447               	.LM233:
 2448 0e42 90E0      		ldi r25,lo8(0)
 2449 0e44 60E0      		ldi r22,lo8(lcdScreen)
 2450 0e46 70E0      		ldi r23,hi8(lcdScreen)
 2451 0e48 40E1      		ldi r20,lo8(16)
 2452 0e4a 50E0      		ldi r21,hi8(16)
 2453 0e4c 00D0      		rcall itoa
 2454               	.LM234:
 2455 0e4e 8EE0      		ldi r24,lo8(14)
 2456 0e50 61E0      		ldi r22,lo8(1)
 2457 0e52 00D0      		rcall lcd_gotoxy
 2458               	.LM235:
 2459 0e54 80E0      		ldi r24,lo8(lcdScreen)
 2460 0e56 90E0      		ldi r25,hi8(lcdScreen)
 2461 0e58 00D0      		rcall lcd_puts
 2462               	.L128:
 2463               	.LM236:
 2464 0e5a 00D0      		rcall tsipDecodeSATELLITE
 2465               	.LM237:
 2466 0e5c 00D0      		rcall tsipDecodeGPSTIME
 2467 0e5e 8823      		tst r24
 2468 0e60 01F4      		brne .+2
 2469 0e62 00C0      		rjmp .L136
 2470               	.LM238:
 2471 0e64 80E0      		ldi r24,lo8(0)
 2472 0e66 60E0      		ldi r22,lo8(0)
 2473 0e68 00D0      		rcall lcd_gotoxy
 2474               	.LM239:
 2475 0e6a 80E0      		ldi r24,lo8(gpstime)
 2476 0e6c 90E0      		ldi r25,hi8(gpstime)
 2477 0e6e 00D0      		rcall lcd_puts
 2478 0e70 00C0      		rjmp .L136
 2479               	.LFE20:
 2480               		.size	main, .-main
 2481               	.global	systime
 2482               	.global	systime
 2483               		.section .bss
 2484               		.type	systime, @object
 2485               		.size	systime, 2
 2486               	systime:
 2487 0000 0000      		.skip 2,0
 2488               	.global	lastgpspkt
 2489               	.global	lastgpspkt
 2490               		.type	lastgpspkt, @object
 2491               		.size	lastgpspkt, 2
 2492               	lastgpspkt:
 2493 0002 0000      		.skip 2,0
 2494               	.global	key
 2495               	.global	key
 2496               		.type	key, @object
 2497               		.size	key, 1
 2498               	key:
 2499 0004 00        		.skip 1,0
 2500               	.global	minorwert
GAS LISTING C:\DOKUME~1\Romahn\LOKALE~1\Temp/ccAI76Wf.s 			page 45


 2501               	.global	minorwert
 2502               		.type	minorwert, @object
 2503               		.size	minorwert, 2
 2504               	minorwert:
 2505 0005 0000      		.skip 2,0
 2506               	.global	minorbit
 2507               	.global	minorbit
 2508               		.type	minorbit, @object
 2509               		.size	minorbit, 1
 2510               	minorbit:
 2511 0007 00        		.skip 1,0
 2512               	.global	satcount
 2513               	.global	satcount
 2514               		.type	satcount, @object
 2515               		.size	satcount, 1
 2516               	satcount:
 2517 0008 00        		.skip 1,0
 2518               	.global	newsec
 2519               	.global	newsec
 2520               		.type	newsec, @object
 2521               		.size	newsec, 1
 2522               	newsec:
 2523 0009 00        		.skip 1,0
 2524               	.global	disciplinmode0
 2525               		.section	.progmem.data,"a",@progbits
 2526               		.type	disciplinmode0, @object
 2527               		.size	disciplinmode0, 17
 2528               	disciplinmode0:
 2529 0000 4E6F 726D 		.string	"Normal Discipl. "
 2529      616C 2044 
 2529      6973 6369 
 2529      706C 2E20 
 2529      00
 2530               	.global	disciplinmode1
 2531               		.type	disciplinmode1, @object
 2532               		.size	disciplinmode1, 17
 2533               	disciplinmode1:
 2534 0011 506F 7765 		.string	"Power up        "
 2534      7220 7570 
 2534      2020 2020 
 2534      2020 2020 
 2534      00
 2535               	.global	disciplinmode2
 2536               		.type	disciplinmode2, @object
 2537               		.size	disciplinmode2, 17
 2538               	disciplinmode2:
 2539 0022 4175 746F 		.string	"Auto Holdover   "
 2539      2048 6F6C 
 2539      646F 7665 
 2539      7220 2020 
 2539      00
 2540               	.global	disciplinmode3
 2541               		.type	disciplinmode3, @object
 2542               		.size	disciplinmode3, 17
 2543               	disciplinmode3:
 2544 0033 4D61 6E75 		.string	"Manual Holdover "
 2544      616C 2048 
GAS LISTING C:\DOKUME~1\Romahn\LOKALE~1\Temp/ccAI76Wf.s 			page 46


 2544      6F6C 646F 
 2544      7665 7220 
 2544      00
 2545               	.global	disciplinmode4
 2546               		.type	disciplinmode4, @object
 2547               		.size	disciplinmode4, 17
 2548               	disciplinmode4:
 2549 0044 5265 636F 		.string	"Recover Discipl."
 2549      7665 7220 
 2549      4469 7363 
 2549      6970 6C2E 
 2549      00
 2550               	.global	disciplinmode5
 2551               		.type	disciplinmode5, @object
 2552               		.size	disciplinmode5, 17
 2553               	disciplinmode5:
 2554 0055 3F3F 4D6F 		.string	"??Mode not used?"
 2554      6465 206E 
 2554      6F74 2075 
 2554      7365 643F 
 2554      00
 2555               	.global	disciplinmode6
 2556               		.type	disciplinmode6, @object
 2557               		.size	disciplinmode6, 17
 2558               	disciplinmode6:
 2559 0066 4469 7361 		.string	"Disabled Discipl"
 2559      626C 6564 
 2559      2044 6973 
 2559      6369 706C 
 2559      00
 2560               	.global	disciplinmodeu
 2561               		.type	disciplinmodeu, @object
 2562               		.size	disciplinmodeu, 17
 2563               	disciplinmodeu:
 2564 0077 556E 6B6E 		.string	"Unknwn Disc Mode"
 2564      776E 2044 
 2564      6973 6320 
 2564      4D6F 6465 
 2564      00
 2565               	.global	decodingstatus0
 2566               		.type	decodingstatus0, @object
 2567               		.size	decodingstatus0, 17
 2568               	decodingstatus0:
 2569 0088 446F 696E 		.string	"Doing fixes     "
 2569      6720 6669 
 2569      7865 7320 
 2569      2020 2020 
 2569      00
 2570               	.global	decodingstatus1
 2571               		.type	decodingstatus1, @object
 2572               		.size	decodingstatus1, 17
 2573               	decodingstatus1:
 2574 0099 4E6F 2047 		.string	"No GPS Time yet "
 2574      5053 2054 
 2574      696D 6520 
 2574      7965 7420 
 2574      00
GAS LISTING C:\DOKUME~1\Romahn\LOKALE~1\Temp/ccAI76Wf.s 			page 47


 2575               	.global	decodingstatus2
 2576               		.type	decodingstatus2, @object
 2577               		.size	decodingstatus2, 17
 2578               	decodingstatus2:
 2579 00aa 3F3F 5374 		.string	"??Status??      "
 2579      6174 7573 
 2579      3F3F 2020 
 2579      2020 2020 
 2579      00
 2580               	.global	decodingstatus3
 2581               		.type	decodingstatus3, @object
 2582               		.size	decodingstatus3, 17
 2583               	decodingstatus3:
 2584 00bb 5044 4F50 		.string	"PDOP is too high"
 2584      2069 7320 
 2584      746F 6F20 
 2584      6869 6768 
 2584      00
 2585               	.global	decodingstatus8
 2586               		.type	decodingstatus8, @object
 2587               		.size	decodingstatus8, 17
 2588               	decodingstatus8:
 2589 00cc 4E6F 2075 		.string	"No usable Sats. "
 2589      7361 626C 
 2589      6520 5361 
 2589      7473 2E20 
 2589      00
 2590               	.global	decodingstatus9
 2591               		.type	decodingstatus9, @object
 2592               		.size	decodingstatus9, 17
 2593               	decodingstatus9:
 2594 00dd 3120 7573 		.string	"1 usable Sat    "
 2594      6162 6C65 
 2594      2053 6174 
 2594      2020 2020 
 2594      00
 2595               	.global	decodingstatus10
 2596               		.type	decodingstatus10, @object
 2597               		.size	decodingstatus10, 17
 2598               	decodingstatus10:
 2599 00ee 3220 7573 		.string	"2 usable Sats.  "
 2599      6162 6C65 
 2599      2053 6174 
 2599      732E 2020 
 2599      00
 2600               	.global	decodingstatus11
 2601               		.type	decodingstatus11, @object
 2602               		.size	decodingstatus11, 17
 2603               	decodingstatus11:
 2604 00ff 3320 7573 		.string	"3 usable sats.  "
 2604      6162 6C65 
 2604      2073 6174 
 2604      732E 2020 
 2604      00
 2605               	.global	decodingstatus12
 2606               		.type	decodingstatus12, @object
 2607               		.size	decodingstatus12, 17
GAS LISTING C:\DOKUME~1\Romahn\LOKALE~1\Temp/ccAI76Wf.s 			page 48


 2608               	decodingstatus12:
 2609 0110 5361 742E 		.string	"Sat. is unusable"
 2609      2069 7320 
 2609      756E 7573 
 2609      6162 6C65 
 2609      00
 2610               	.global	decodingstatus16
 2611               		.type	decodingstatus16, @object
 2612               		.size	decodingstatus16, 17
 2613               	decodingstatus16:
 2614 0121 5452 4149 		.string	"TRAIM rejct. fix"
 2614      4D20 7265 
 2614      6A63 742E 
 2614      2066 6978 
 2614      00
 2615               	.global	decodingstatusu
 2616               		.type	decodingstatusu, @object
 2617               		.size	decodingstatusu, 17
 2618               	decodingstatusu:
 2619 0132 556E 6B6E 		.string	"Unknown Status  "
 2619      6F77 6E20 
 2619      5374 6174 
 2619      7573 2020 
 2619      00
 2620               	.global	decodingactivity0
 2621               		.type	decodingactivity0, @object
 2622               		.size	decodingactivity0, 17
 2623               	decodingactivity0:
 2624 0143 5068 6173 		.string	"Phase locking   "
 2624      6520 6C6F 
 2624      636B 696E 
 2624      6720 2020 
 2624      00
 2625               	.global	decodingactivity1
 2626               		.type	decodingactivity1, @object
 2627               		.size	decodingactivity1, 17
 2628               	decodingactivity1:
 2629 0154 4F73 6369 		.string	"Oscillat warm up"
 2629      6C6C 6174 
 2629      2077 6172 
 2629      6D20 7570 
 2629      00
 2630               	.global	decodingactivity2
 2631               		.type	decodingactivity2, @object
 2632               		.size	decodingactivity2, 17
 2633               	decodingactivity2:
 2634 0165 4672 7175 		.string	"Frquency locking"
 2634      656E 6379 
 2634      206C 6F63 
 2634      6B69 6E67 
 2634      00
 2635               	.global	decodingactivity3
 2636               		.type	decodingactivity3, @object
 2637               		.size	decodingactivity3, 17
 2638               	decodingactivity3:
 2639 0176 506C 6163 		.string	"Placing PPS     "
 2639      696E 6720 
GAS LISTING C:\DOKUME~1\Romahn\LOKALE~1\Temp/ccAI76Wf.s 			page 49


 2639      5050 5320 
 2639      2020 2020 
 2639      00
 2640               	.global	decodingactivity4
 2641               		.type	decodingactivity4, @object
 2642               		.size	decodingactivity4, 17
 2643               	decodingactivity4:
 2644 0187 496E 6974 		.string	"Init Loop Filter"
 2644      204C 6F6F 
 2644      7020 4669 
 2644      6C74 6572 
 2644      00
 2645               	.global	decodingactivity5
 2646               		.type	decodingactivity5, @object
 2647               		.size	decodingactivity5, 17
 2648               	decodingactivity5:
 2649 0198 436F 6D70 		.string	"Compensatg. OCXO"
 2649      656E 7361 
 2649      7467 2E20 
 2649      4F43 584F 
 2649      00
 2650               	.global	decodingactivity6
 2651               		.type	decodingactivity6, @object
 2652               		.size	decodingactivity6, 17
 2653               	decodingactivity6:
 2654 01a9 4469 7363 		.string	"Discipl Inactive"
 2654      6970 6C20 
 2654      496E 6163 
 2654      7469 7665 
 2654      00
 2655               	.global	decodingactivity7
 2656               		.type	decodingactivity7, @object
 2657               		.size	decodingactivity7, 17
 2658               	decodingactivity7:
 2659 01ba 2020 3F3F 		.string	"  ??            "
 2659      2020 2020 
 2659      2020 2020 
 2659      2020 2020 
 2659      00
 2660               	.global	decodingactivity8
 2661               		.type	decodingactivity8, @object
 2662               		.size	decodingactivity8, 17
 2663               	decodingactivity8:
 2664 01cb 5265 636F 		.string	"Recovery loop   "
 2664      7665 7279 
 2664      206C 6F6F 
 2664      7020 2020 
 2664      00
 2665               	.global	decodingactivity9
 2666               		.type	decodingactivity9, @object
 2667               		.size	decodingactivity9, 17
 2668               	decodingactivity9:
 2669 01dc 4361 6C69 		.string	"Calibr > Voltage"
 2669      6272 203E 
 2669      2056 6F6C 
 2669      7461 6765 
 2669      00
GAS LISTING C:\DOKUME~1\Romahn\LOKALE~1\Temp/ccAI76Wf.s 			page 50


 2670               	.global	decodingactivityu
 2671               		.type	decodingactivityu, @object
 2672               		.size	decodingactivityu, 17
 2673               	decodingactivityu:
 2674 01ed 556E 6B6E 		.string	"Unknown activity"
 2674      6F77 6E20 
 2674      6163 7469 
 2674      7669 7479 
 2674      00
 2675               	.global	decodingmalarm0
 2676               		.type	decodingmalarm0, @object
 2677               		.size	decodingmalarm0, 17
 2678               	decodingmalarm0:
 2679 01fe 4441 4320 		.string	"DAC near rail   "
 2679      6E65 6172 
 2679      2072 6169 
 2679      6C20 2020 
 2679      00
 2680               	.global	decodingmalarm1
 2681               		.type	decodingmalarm1, @object
 2682               		.size	decodingmalarm1, 17
 2683               	decodingmalarm1:
 2684 020f 416E 7465 		.string	"Antenna open    "
 2684      6E6E 6120 
 2684      6F70 656E 
 2684      2020 2020 
 2684      00
 2685               	.global	decodingmalarm2
 2686               		.type	decodingmalarm2, @object
 2687               		.size	decodingmalarm2, 17
 2688               	decodingmalarm2:
 2689 0220 416E 7465 		.string	"Antenna shorted "
 2689      6E6E 6120 
 2689      7368 6F72 
 2689      7465 6420 
 2689      00
 2690               	.global	decodingmalarm3
 2691               		.type	decodingmalarm3, @object
 2692               		.size	decodingmalarm3, 17
 2693               	decodingmalarm3:
 2694 0231 4E6F 7420 		.string	"Not trackg sats."
 2694      7472 6163 
 2694      6B67 2073 
 2694      6174 732E 
 2694      00
 2695               	.global	decodingmalarm4
 2696               		.type	decodingmalarm4, @object
 2697               		.size	decodingmalarm4, 17
 2698               	decodingmalarm4:
 2699 0242 4E6F 7420 		.string	"Not discpl. Osc."
 2699      6469 7363 
 2699      706C 2E20 
 2699      4F73 632E 
 2699      00
 2700               	.global	decodingmalarm5
 2701               		.type	decodingmalarm5, @object
 2702               		.size	decodingmalarm5, 17
GAS LISTING C:\DOKUME~1\Romahn\LOKALE~1\Temp/ccAI76Wf.s 			page 51


 2703               	decodingmalarm5:
 2704 0253 5375 7276 		.string	"Survey progress "
 2704      6579 2070 
 2704      726F 6772 
 2704      6573 7320 
 2704      00
 2705               	.global	decodingmalarm6
 2706               		.type	decodingmalarm6, @object
 2707               		.size	decodingmalarm6, 17
 2708               	decodingmalarm6:
 2709 0264 4E6F 2073 		.string	"No stored Posit."
 2709      746F 7265 
 2709      6420 506F 
 2709      7369 742E 
 2709      00
 2710               	.global	decodingmalarm7
 2711               		.type	decodingmalarm7, @object
 2712               		.size	decodingmalarm7, 17
 2713               	decodingmalarm7:
 2714 0275 4C65 6170 		.string	"Leap sec pending"
 2714      2073 6563 
 2714      2070 656E 
 2714      6469 6E67 
 2714      00
 2715               	.global	decodingmalarm8
 2716               		.type	decodingmalarm8, @object
 2717               		.size	decodingmalarm8, 17
 2718               	decodingmalarm8:
 2719 0286 496E 2074 		.string	"In test mode    "
 2719      6573 7420 
 2719      6D6F 6465 
 2719      2020 2020 
 2719      00
 2720               	.global	decodingmalarm9
 2721               		.type	decodingmalarm9, @object
 2722               		.size	decodingmalarm9, 17
 2723               	decodingmalarm9:
 2724 0297 506F 7369 		.string	"Position is ??  "
 2724      7469 6F6E 
 2724      2069 7320 
 2724      3F3F 2020 
 2724      00
 2725               	.global	decodingmalarm10
 2726               		.type	decodingmalarm10, @object
 2727               		.size	decodingmalarm10, 17
 2728               	decodingmalarm10:
 2729 02a8 4545 5052 		.string	"EEPROM invalid  "
 2729      4F4D 2069 
 2729      6E76 616C 
 2729      6964 2020 
 2729      00
 2730               	.global	decodingmalarm11
 2731               		.type	decodingmalarm11, @object
 2732               		.size	decodingmalarm11, 17
 2733               	decodingmalarm11:
 2734 02b9 416C 6D61 		.string	"Almanach incompl"
 2734      6E61 6368 
GAS LISTING C:\DOKUME~1\Romahn\LOKALE~1\Temp/ccAI76Wf.s 			page 52


 2734      2069 6E63 
 2734      6F6D 706C 
 2734      00
 2735               	.global	decodingmalarm12
 2736               		.type	decodingmalarm12, @object
 2737               		.size	decodingmalarm12, 17
 2738               	decodingmalarm12:
 2739 02ca 5050 5320 		.string	"PPS not generatd"
 2739      6E6F 7420 
 2739      6765 6E65 
 2739      7261 7464 
 2739      00
 2740               	.global	decodingmalarmu
 2741               		.type	decodingmalarmu, @object
 2742               		.size	decodingmalarmu, 17
 2743               	decodingmalarmu:
 2744 02db 556E 6B6E 		.string	"Unknwn Min Alarm"
 2744      776E 204D 
 2744      696E 2041 
 2744      6C61 726D 
 2744      00
 2745               	.global	criticalalarm
 2746               		.type	criticalalarm, @object
 2747               		.size	criticalalarm, 17
 2748               	criticalalarm:
 2749 02ec 4372 6974 		.string	"Crit. Alarm 0x  "
 2749      2E20 416C 
 2749      6172 6D20 
 2749      3078 2020 
 2749      00
 2750               	.global	tsipGPSTIME
 2751               	.global	tsipGPSTIME
 2752               		.section .bss
 2753               		.type	tsipGPSTIME, @object
 2754               		.size	tsipGPSTIME, 19
 2755               	tsipGPSTIME:
 2756 000a 0000 0000 		.skip 19,0
 2756      0000 0000 
 2756      0000 0000 
 2756      0000 0000 
 2756      0000 00
 2757               	.global	dst
 2758               	.global	dst
 2759               		.type	dst, @object
 2760               		.size	dst, 4
 2761               	dst:
 2762 001d 0000 0000 		.skip 4,0
 2763               	.global	mez
 2764               	.global	mez
 2765               		.type	mez, @object
 2766               		.size	mez, 4
 2767               	mez:
 2768 0021 0000 0000 		.skip 4,0
 2769               	.global	months
 2770               		.section	.progmem.data
 2771               		.type	months, @object
 2772               		.size	months, 40
GAS LISTING C:\DOKUME~1\Romahn\LOKALE~1\Temp/ccAI76Wf.s 			page 53


 2773               	months:
 2774 02fd 3F3F 3F4A 		.string	"???JanFebMarAprMayJunJulAugSepOctNovDec"
 2774      616E 4665 
 2774      624D 6172 
 2774      4170 724D 
 2774      6179 4A75 
 2775               		.data
 2776               		.type	rxBufLen.2332, @object
 2777               		.size	rxBufLen.2332, 1
 2778               	rxBufLen.2332:
 2779 0029 FF        		.byte	-1
 2780               		.lcomm stuff.2331,1
 2781               		.section	.progmem.data
 2782               		.type	__c.2290, @object
 2783               		.size	__c.2290, 17
 2784               	__c.2290:
 2785 0325 4E6F 2070 		.string	"No packet      s"
 2785      6163 6B65 
 2785      7420 2020 
 2785      2020 2073 
 2785      00
 2786               		.type	__c.2288, @object
 2787               		.size	__c.2288, 17
 2788               	__c.2288:
 2789 0336 5462 6F6C 		.string	"Tbolt Connected?"
 2789      7420 436F 
 2789      6E6E 6563 
 2789      7465 643F 
 2789      00
 2790               		.type	__c.2286, @object
 2791               		.size	__c.2286, 17
 2792               	__c.2286:
 2793 0347 5462 6F6C 		.string	"Tbolt2LCD (GWR) "
 2793      7432 4C43 
 2793      4420 2847 
 2793      5752 2920 
 2793      00
 2794               		.data
 2795               		.type	t.2151, @object
 2796               		.size	t.2151, 12
 2797               	t.2151:
 2798 002a 00        		.byte	0
 2799 002b 03        		.byte	3
 2800 002c 02        		.byte	2
 2801 002d 05        		.byte	5
 2802 002e 00        		.byte	0
 2803 002f 03        		.byte	3
 2804 0030 05        		.byte	5
 2805 0031 01        		.byte	1
 2806 0032 04        		.byte	4
 2807 0033 06        		.byte	6
 2808 0034 02        		.byte	2
 2809 0035 04        		.byte	4
 2810               		.comm lcdScreen,33,1
 2811               		.comm gpstime,33,1
 2812               		.comm gpshealth,2,1
 2813               		.comm tsipSATELLITE,4,1
GAS LISTING C:\DOKUME~1\Romahn\LOKALE~1\Temp/ccAI76Wf.s 			page 54


 2814               		.comm tsipSTATUS,14,1
 2815               		.comm gps_time,2,1
 2816               		.comm rxBuffer,69,1
 2817               		.section	.debug_frame,"",@progbits
 2818               	.Lframe0:
 2819 0000 0C00 0000 		.long	.LECIE0-.LSCIE0
 2820               	.LSCIE0:
 2821 0004 FFFF FFFF 		.long	0xffffffff
 2822 0008 01        		.byte	0x1
 2823 0009 00        		.string	""
 2824 000a 01        		.uleb128 0x1
 2825 000b 7F        		.sleb128 -1
 2826 000c 24        		.byte	0x24
 2827 000d 0C        		.byte	0xc
 2828 000e 20        		.uleb128 0x20
 2829 000f 00        		.uleb128 0x0
 2830               		.p2align	2
 2831               	.LECIE0:
 2832               	.LSFDE0:
 2833 0010 0C00 0000 		.long	.LEFDE0-.LASFDE0
 2834               	.LASFDE0:
 2835 0014 0000 0000 		.long	.Lframe0
 2836 0018 0000 0000 		.long	.LFB9
 2837 001c 1000 0000 		.long	.LFE9-.LFB9
 2838               		.p2align	2
 2839               	.LEFDE0:
 2840               	.LSFDE2:
 2841 0020 0C00 0000 		.long	.LEFDE2-.LASFDE2
 2842               	.LASFDE2:
 2843 0024 0000 0000 		.long	.Lframe0
 2844 0028 0000 0000 		.long	.LFB10
 2845 002c 2000 0000 		.long	.LFE10-.LFB10
 2846               		.p2align	2
 2847               	.LEFDE2:
 2848               	.LSFDE4:
 2849 0030 0C00 0000 		.long	.LEFDE4-.LASFDE4
 2850               	.LASFDE4:
 2851 0034 0000 0000 		.long	.Lframe0
 2852 0038 0000 0000 		.long	.LFB11
 2853 003c 3C02 0000 		.long	.LFE11-.LFB11
 2854               		.p2align	2
 2855               	.LEFDE4:
 2856               	.LSFDE6:
 2857 0040 0C00 0000 		.long	.LEFDE6-.LASFDE6
 2858               	.LASFDE6:
 2859 0044 0000 0000 		.long	.Lframe0
 2860 0048 0000 0000 		.long	.LFB12
 2861 004c 0800 0000 		.long	.LFE12-.LFB12
 2862               		.p2align	2
 2863               	.LEFDE6:
 2864               	.LSFDE8:
 2865 0050 0C00 0000 		.long	.LEFDE8-.LASFDE8
 2866               	.LASFDE8:
 2867 0054 0000 0000 		.long	.Lframe0
 2868 0058 0000 0000 		.long	.LFB13
 2869 005c 3E00 0000 		.long	.LFE13-.LFB13
 2870               		.p2align	2
GAS LISTING C:\DOKUME~1\Romahn\LOKALE~1\Temp/ccAI76Wf.s 			page 55


 2871               	.LEFDE8:
 2872               	.LSFDE10:
 2873 0060 0C00 0000 		.long	.LEFDE10-.LASFDE10
 2874               	.LASFDE10:
 2875 0064 0000 0000 		.long	.Lframe0
 2876 0068 0000 0000 		.long	.LFB14
 2877 006c 4801 0000 		.long	.LFE14-.LFB14
 2878               		.p2align	2
 2879               	.LEFDE10:
 2880               	.LSFDE12:
 2881 0070 0C00 0000 		.long	.LEFDE12-.LASFDE12
 2882               	.LASFDE12:
 2883 0074 0000 0000 		.long	.Lframe0
 2884 0078 0000 0000 		.long	.LFB15
 2885 007c E001 0000 		.long	.LFE15-.LFB15
 2886               		.p2align	2
 2887               	.LEFDE12:
 2888               	.LSFDE14:
 2889 0080 0C00 0000 		.long	.LEFDE14-.LASFDE14
 2890               	.LASFDE14:
 2891 0084 0000 0000 		.long	.Lframe0
 2892 0088 0000 0000 		.long	.LFB16
 2893 008c E400 0000 		.long	.LFE16-.LFB16
 2894               		.p2align	2
 2895               	.LEFDE14:
 2896               	.LSFDE16:
 2897 0090 0C00 0000 		.long	.LEFDE16-.LASFDE16
 2898               	.LASFDE16:
 2899 0094 0000 0000 		.long	.Lframe0
 2900 0098 0000 0000 		.long	.LFB17
 2901 009c 6800 0000 		.long	.LFE17-.LFB17
 2902               		.p2align	2
 2903               	.LEFDE16:
 2904               	.LSFDE18:
 2905 00a0 0C00 0000 		.long	.LEFDE18-.LASFDE18
 2906               	.LASFDE18:
 2907 00a4 0000 0000 		.long	.Lframe0
 2908 00a8 0000 0000 		.long	.LFB19
 2909 00ac 2000 0000 		.long	.LFE19-.LFB19
 2910               		.p2align	2
 2911               	.LEFDE18:
 2912               	.LSFDE20:
 2913 00b0 0C00 0000 		.long	.LEFDE20-.LASFDE20
 2914               	.LASFDE20:
 2915 00b4 0000 0000 		.long	.Lframe0
 2916 00b8 0000 0000 		.long	.LFB21
 2917 00bc 2000 0000 		.long	.LFE21-.LFB21
 2918               		.p2align	2
 2919               	.LEFDE20:
 2920               	.LSFDE22:
 2921 00c0 0C00 0000 		.long	.LEFDE22-.LASFDE22
 2922               	.LASFDE22:
 2923 00c4 0000 0000 		.long	.Lframe0
 2924 00c8 0000 0000 		.long	.LFB22
 2925 00cc 3C00 0000 		.long	.LFE22-.LFB22
 2926               		.p2align	2
 2927               	.LEFDE22:
GAS LISTING C:\DOKUME~1\Romahn\LOKALE~1\Temp/ccAI76Wf.s 			page 56


 2928               	.LSFDE24:
 2929 00d0 0C00 0000 		.long	.LEFDE24-.LASFDE24
 2930               	.LASFDE24:
 2931 00d4 0000 0000 		.long	.Lframe0
 2932 00d8 0000 0000 		.long	.LFB23
 2933 00dc 1400 0000 		.long	.LFE23-.LFB23
 2934               		.p2align	2
 2935               	.LEFDE24:
 2936               	.LSFDE26:
 2937 00e0 0C00 0000 		.long	.LEFDE26-.LASFDE26
 2938               	.LASFDE26:
 2939 00e4 0000 0000 		.long	.Lframe0
 2940 00e8 0000 0000 		.long	.LFB25
 2941 00ec 1400 0000 		.long	.LFE25-.LFB25
 2942               		.p2align	2
 2943               	.LEFDE26:
 2944               	.LSFDE28:
 2945 00f0 0C00 0000 		.long	.LEFDE28-.LASFDE28
 2946               	.LASFDE28:
 2947 00f4 0000 0000 		.long	.Lframe0
 2948 00f8 0000 0000 		.long	.LFB24
 2949 00fc 2801 0000 		.long	.LFE24-.LFB24
 2950               		.p2align	2
 2951               	.LEFDE28:
 2952               	.LSFDE30:
 2953 0100 0C00 0000 		.long	.LEFDE30-.LASFDE30
 2954               	.LASFDE30:
 2955 0104 0000 0000 		.long	.Lframe0
 2956 0108 0000 0000 		.long	.LFB18
 2957 010c 7004 0000 		.long	.LFE18-.LFB18
 2958               		.p2align	2
 2959               	.LEFDE30:
 2960               	.LSFDE32:
 2961 0110 0C00 0000 		.long	.LEFDE32-.LASFDE32
 2962               	.LASFDE32:
 2963 0114 0000 0000 		.long	.Lframe0
 2964 0118 0000 0000 		.long	.LFB20
 2965 011c 1001 0000 		.long	.LFE20-.LFB20
 2966               		.p2align	2
 2967               	.LEFDE32:
 2968               		.text
 2969               	.Letext0:
 2970               		.section	.debug_loc,"",@progbits
 2971               	.Ldebug_loc0:
 2972               	.LLST1:
 2973 0000 0A00 0000 		.long	.LVL0-.Ltext0
 2974 0004 0E00 0000 		.long	.LVL1-.Ltext0
 2975 0008 0600      		.word	0x6
 2976 000a 62        		.byte	0x62
 2977 000b 93        		.byte	0x93
 2978 000c 01        		.uleb128 0x1
 2979 000d 63        		.byte	0x63
 2980 000e 93        		.byte	0x93
 2981 000f 01        		.uleb128 0x1
 2982 0010 0000 0000 		.long	0x0
 2983 0014 0000 0000 		.long	0x0
 2984               	.LLST4:
GAS LISTING C:\DOKUME~1\Romahn\LOKALE~1\Temp/ccAI76Wf.s 			page 57


 2985 0018 FA00 0000 		.long	.LVL2-.Ltext0
 2986 001c 0601 0000 		.long	.LVL3-.Ltext0
 2987 0020 0600      		.word	0x6
 2988 0022 68        		.byte	0x68
 2989 0023 93        		.byte	0x93
 2990 0024 01        		.uleb128 0x1
 2991 0025 69        		.byte	0x69
 2992 0026 93        		.byte	0x93
 2993 0027 01        		.uleb128 0x1
 2994 0028 0000 0000 		.long	0x0
 2995 002c 0000 0000 		.long	0x0
 2996               	.LLST5:
 2997 0030 0601 0000 		.long	.LVL3-.Ltext0
 2998 0034 1401 0000 		.long	.LVL4-.Ltext0
 2999 0038 0600      		.word	0x6
 3000 003a 68        		.byte	0x68
 3001 003b 93        		.byte	0x93
 3002 003c 01        		.uleb128 0x1
 3003 003d 69        		.byte	0x69
 3004 003e 93        		.byte	0x93
 3005 003f 01        		.uleb128 0x1
 3006 0040 6C01 0000 		.long	.LVL5-.Ltext0
 3007 0044 7201 0000 		.long	.LVL6-.Ltext0
 3008 0048 0600      		.word	0x6
 3009 004a 68        		.byte	0x68
 3010 004b 93        		.byte	0x93
 3011 004c 01        		.uleb128 0x1
 3012 004d 69        		.byte	0x69
 3013 004e 93        		.byte	0x93
 3014 004f 01        		.uleb128 0x1
 3015 0050 0000 0000 		.long	0x0
 3016 0054 0000 0000 		.long	0x0
 3017               	.LLST6:
 3018 0058 9601 0000 		.long	.LVL7-.Ltext0
 3019 005c B201 0000 		.long	.LVL8-.Ltext0
 3020 0060 0600      		.word	0x6
 3021 0062 68        		.byte	0x68
 3022 0063 93        		.byte	0x93
 3023 0064 01        		.uleb128 0x1
 3024 0065 69        		.byte	0x69
 3025 0066 93        		.byte	0x93
 3026 0067 01        		.uleb128 0x1
 3027 0068 4802 0000 		.long	.LVL9-.Ltext0
 3028 006c 4C02 0000 		.long	.LVL10-.Ltext0
 3029 0070 0600      		.word	0x6
 3030 0072 68        		.byte	0x68
 3031 0073 93        		.byte	0x93
 3032 0074 01        		.uleb128 0x1
 3033 0075 69        		.byte	0x69
 3034 0076 93        		.byte	0x93
 3035 0077 01        		.uleb128 0x1
 3036 0078 0000 0000 		.long	0x0
 3037 007c 0000 0000 		.long	0x0
 3038               	.LLST8:
 3039 0080 6C02 0000 		.long	.LVL11-.Ltext0
 3040 0084 7002 0000 		.long	.LVL12-.Ltext0
 3041 0088 0600      		.word	0x6
GAS LISTING C:\DOKUME~1\Romahn\LOKALE~1\Temp/ccAI76Wf.s 			page 58


 3042 008a 68        		.byte	0x68
 3043 008b 93        		.byte	0x93
 3044 008c 01        		.uleb128 0x1
 3045 008d 69        		.byte	0x69
 3046 008e 93        		.byte	0x93
 3047 008f 01        		.uleb128 0x1
 3048 0090 7002 0000 		.long	.LVL12-.Ltext0
 3049 0094 7202 0000 		.long	.LVL13-.Ltext0
 3050 0098 0600      		.word	0x6
 3051 009a 62        		.byte	0x62
 3052 009b 93        		.byte	0x93
 3053 009c 01        		.uleb128 0x1
 3054 009d 69        		.byte	0x69
 3055 009e 93        		.byte	0x93
 3056 009f 01        		.uleb128 0x1
 3057 00a0 0000 0000 		.long	0x0
 3058 00a4 0000 0000 		.long	0x0
 3059               	.LLST10:
 3060 00a8 7402 0000 		.long	.LVL14-.Ltext0
 3061 00ac A402 0000 		.long	.LVL15-.Ltext0
 3062 00b0 0C00      		.word	0xc
 3063 00b2 66        		.byte	0x66
 3064 00b3 93        		.byte	0x93
 3065 00b4 01        		.uleb128 0x1
 3066 00b5 67        		.byte	0x67
 3067 00b6 93        		.byte	0x93
 3068 00b7 01        		.uleb128 0x1
 3069 00b8 68        		.byte	0x68
 3070 00b9 93        		.byte	0x93
 3071 00ba 01        		.uleb128 0x1
 3072 00bb 69        		.byte	0x69
 3073 00bc 93        		.byte	0x93
 3074 00bd 01        		.uleb128 0x1
 3075 00be 0000 0000 		.long	0x0
 3076 00c2 0000 0000 		.long	0x0
 3077               	.LLST12:
 3078 00c6 B202 0000 		.long	.LVL16-.Ltext0
 3079 00ca E402 0000 		.long	.LVL19-.Ltext0
 3080 00ce 0C00      		.word	0xc
 3081 00d0 66        		.byte	0x66
 3082 00d1 93        		.byte	0x93
 3083 00d2 01        		.uleb128 0x1
 3084 00d3 67        		.byte	0x67
 3085 00d4 93        		.byte	0x93
 3086 00d5 01        		.uleb128 0x1
 3087 00d6 68        		.byte	0x68
 3088 00d7 93        		.byte	0x93
 3089 00d8 01        		.uleb128 0x1
 3090 00d9 69        		.byte	0x69
 3091 00da 93        		.byte	0x93
 3092 00db 01        		.uleb128 0x1
 3093 00dc E402 0000 		.long	.LVL19-.Ltext0
 3094 00e0 F803 0000 		.long	.LVL23-.Ltext0
 3095 00e4 0C00      		.word	0xc
 3096 00e6 52        		.byte	0x52
 3097 00e7 93        		.byte	0x93
 3098 00e8 01        		.uleb128 0x1
GAS LISTING C:\DOKUME~1\Romahn\LOKALE~1\Temp/ccAI76Wf.s 			page 59


 3099 00e9 53        		.byte	0x53
 3100 00ea 93        		.byte	0x93
 3101 00eb 01        		.uleb128 0x1
 3102 00ec 54        		.byte	0x54
 3103 00ed 93        		.byte	0x93
 3104 00ee 01        		.uleb128 0x1
 3105 00ef 55        		.byte	0x55
 3106 00f0 93        		.byte	0x93
 3107 00f1 01        		.uleb128 0x1
 3108 00f2 0000 0000 		.long	0x0
 3109 00f6 0000 0000 		.long	0x0
 3110               	.LLST13:
 3111 00fa B202 0000 		.long	.LVL16-.Ltext0
 3112 00fe E202 0000 		.long	.LVL18-.Ltext0
 3113 0102 0C00      		.word	0xc
 3114 0104 62        		.byte	0x62
 3115 0105 93        		.byte	0x93
 3116 0106 01        		.uleb128 0x1
 3117 0107 63        		.byte	0x63
 3118 0108 93        		.byte	0x93
 3119 0109 01        		.uleb128 0x1
 3120 010a 64        		.byte	0x64
 3121 010b 93        		.byte	0x93
 3122 010c 01        		.uleb128 0x1
 3123 010d 65        		.byte	0x65
 3124 010e 93        		.byte	0x93
 3125 010f 01        		.uleb128 0x1
 3126 0110 E202 0000 		.long	.LVL18-.Ltext0
 3127 0114 F003 0000 		.long	.LVL22-.Ltext0
 3128 0118 0C00      		.word	0xc
 3129 011a 56        		.byte	0x56
 3130 011b 93        		.byte	0x93
 3131 011c 01        		.uleb128 0x1
 3132 011d 57        		.byte	0x57
 3133 011e 93        		.byte	0x93
 3134 011f 01        		.uleb128 0x1
 3135 0120 58        		.byte	0x58
 3136 0121 93        		.byte	0x93
 3137 0122 01        		.uleb128 0x1
 3138 0123 59        		.byte	0x59
 3139 0124 93        		.byte	0x93
 3140 0125 01        		.uleb128 0x1
 3141 0126 0000 0000 		.long	0x0
 3142 012a 0000 0000 		.long	0x0
 3143               	.LLST14:
 3144 012e B202 0000 		.long	.LVL16-.Ltext0
 3145 0132 CC02 0000 		.long	.LVL17-.Ltext0
 3146 0136 0C00      		.word	0xc
 3147 0138 5E        		.byte	0x5e
 3148 0139 93        		.byte	0x93
 3149 013a 01        		.uleb128 0x1
 3150 013b 5F        		.byte	0x5f
 3151 013c 93        		.byte	0x93
 3152 013d 01        		.uleb128 0x1
 3153 013e 60        		.byte	0x60
 3154 013f 93        		.byte	0x93
 3155 0140 01        		.uleb128 0x1
GAS LISTING C:\DOKUME~1\Romahn\LOKALE~1\Temp/ccAI76Wf.s 			page 60


 3156 0141 61        		.byte	0x61
 3157 0142 93        		.byte	0x93
 3158 0143 01        		.uleb128 0x1
 3159 0144 0003 0000 		.long	.LVL20-.Ltext0
 3160 0148 E003 0000 		.long	.LVL21-.Ltext0
 3161 014c 0C00      		.word	0xc
 3162 014e 5E        		.byte	0x5e
 3163 014f 93        		.byte	0x93
 3164 0150 01        		.uleb128 0x1
 3165 0151 5F        		.byte	0x5f
 3166 0152 93        		.byte	0x93
 3167 0153 01        		.uleb128 0x1
 3168 0154 60        		.byte	0x60
 3169 0155 93        		.byte	0x93
 3170 0156 01        		.uleb128 0x1
 3171 0157 61        		.byte	0x61
 3172 0158 93        		.byte	0x93
 3173 0159 01        		.uleb128 0x1
 3174 015a 0000 0000 		.long	0x0
 3175 015e 0000 0000 		.long	0x0
 3176               	.LLST16:
 3177 0162 FA03 0000 		.long	.LVL24-.Ltext0
 3178 0166 4804 0000 		.long	.LVL28-.Ltext0
 3179 016a 0C00      		.word	0xc
 3180 016c 66        		.byte	0x66
 3181 016d 93        		.byte	0x93
 3182 016e 01        		.uleb128 0x1
 3183 016f 67        		.byte	0x67
 3184 0170 93        		.byte	0x93
 3185 0171 01        		.uleb128 0x1
 3186 0172 68        		.byte	0x68
 3187 0173 93        		.byte	0x93
 3188 0174 01        		.uleb128 0x1
 3189 0175 69        		.byte	0x69
 3190 0176 93        		.byte	0x93
 3191 0177 01        		.uleb128 0x1
 3192 0178 0000 0000 		.long	0x0
 3193 017c 0000 0000 		.long	0x0
 3194               	.LLST17:
 3195 0180 FA03 0000 		.long	.LVL24-.Ltext0
 3196 0184 6604 0000 		.long	.LVL30-.Ltext0
 3197 0188 0600      		.word	0x6
 3198 018a 64        		.byte	0x64
 3199 018b 93        		.byte	0x93
 3200 018c 01        		.uleb128 0x1
 3201 018d 65        		.byte	0x65
 3202 018e 93        		.byte	0x93
 3203 018f 01        		.uleb128 0x1
 3204 0190 6604 0000 		.long	.LVL30-.Ltext0
 3205 0194 DA05 0000 		.long	.LFE15-.Ltext0
 3206 0198 0200      		.word	0x2
 3207 019a 8C        		.byte	0x8c
 3208 019b 05        		.sleb128 5
 3209 019c 0000 0000 		.long	0x0
 3210 01a0 0000 0000 		.long	0x0
 3211               	.LLST18:
 3212 01a4 FA03 0000 		.long	.LVL24-.Ltext0
GAS LISTING C:\DOKUME~1\Romahn\LOKALE~1\Temp/ccAI76Wf.s 			page 61


 3213 01a8 5E04 0000 		.long	.LVL29-.Ltext0
 3214 01ac 0600      		.word	0x6
 3215 01ae 62        		.byte	0x62
 3216 01af 93        		.byte	0x93
 3217 01b0 01        		.uleb128 0x1
 3218 01b1 63        		.byte	0x63
 3219 01b2 93        		.byte	0x93
 3220 01b3 01        		.uleb128 0x1
 3221 01b4 5E04 0000 		.long	.LVL29-.Ltext0
 3222 01b8 D805 0000 		.long	.LVL42-.Ltext0
 3223 01bc 0600      		.word	0x6
 3224 01be 52        		.byte	0x52
 3225 01bf 93        		.byte	0x93
 3226 01c0 01        		.uleb128 0x1
 3227 01c1 53        		.byte	0x53
 3228 01c2 93        		.byte	0x93
 3229 01c3 01        		.uleb128 0x1
 3230 01c4 0000 0000 		.long	0x0
 3231 01c8 0000 0000 		.long	0x0
 3232               	.LLST19:
 3233 01cc FA03 0000 		.long	.LVL24-.Ltext0
 3234 01d0 1804 0000 		.long	.LVL25-.Ltext0
 3235 01d4 0600      		.word	0x6
 3236 01d6 60        		.byte	0x60
 3237 01d7 93        		.byte	0x93
 3238 01d8 01        		.uleb128 0x1
 3239 01d9 61        		.byte	0x61
 3240 01da 93        		.byte	0x93
 3241 01db 01        		.uleb128 0x1
 3242 01dc 3404 0000 		.long	.LVL27-.Ltext0
 3243 01e0 0205 0000 		.long	.LVL34-.Ltext0
 3244 01e4 0600      		.word	0x6
 3245 01e6 60        		.byte	0x60
 3246 01e7 93        		.byte	0x93
 3247 01e8 01        		.uleb128 0x1
 3248 01e9 61        		.byte	0x61
 3249 01ea 93        		.byte	0x93
 3250 01eb 01        		.uleb128 0x1
 3251 01ec 0205 0000 		.long	.LVL34-.Ltext0
 3252 01f0 D405 0000 		.long	.LVL41-.Ltext0
 3253 01f4 0600      		.word	0x6
 3254 01f6 54        		.byte	0x54
 3255 01f7 93        		.byte	0x93
 3256 01f8 01        		.uleb128 0x1
 3257 01f9 55        		.byte	0x55
 3258 01fa 93        		.byte	0x93
 3259 01fb 01        		.uleb128 0x1
 3260 01fc 0000 0000 		.long	0x0
 3261 0200 0000 0000 		.long	0x0
 3262               	.LLST20:
 3263 0204 2C04 0000 		.long	.LVL26-.Ltext0
 3264 0208 3E05 0000 		.long	.LVL36-.Ltext0
 3265 020c 0C00      		.word	0xc
 3266 020e 5A        		.byte	0x5a
 3267 020f 93        		.byte	0x93
 3268 0210 01        		.uleb128 0x1
 3269 0211 5B        		.byte	0x5b
GAS LISTING C:\DOKUME~1\Romahn\LOKALE~1\Temp/ccAI76Wf.s 			page 62


 3270 0212 93        		.byte	0x93
 3271 0213 01        		.uleb128 0x1
 3272 0214 5C        		.byte	0x5c
 3273 0215 93        		.byte	0x93
 3274 0216 01        		.uleb128 0x1
 3275 0217 5D        		.byte	0x5d
 3276 0218 93        		.byte	0x93
 3277 0219 01        		.uleb128 0x1
 3278 021a 5405 0000 		.long	.LVL37-.Ltext0
 3279 021e C805 0000 		.long	.LVL39-.Ltext0
 3280 0222 0C00      		.word	0xc
 3281 0224 5A        		.byte	0x5a
 3282 0225 93        		.byte	0x93
 3283 0226 01        		.uleb128 0x1
 3284 0227 5B        		.byte	0x5b
 3285 0228 93        		.byte	0x93
 3286 0229 01        		.uleb128 0x1
 3287 022a 5C        		.byte	0x5c
 3288 022b 93        		.byte	0x93
 3289 022c 01        		.uleb128 0x1
 3290 022d 5D        		.byte	0x5d
 3291 022e 93        		.byte	0x93
 3292 022f 01        		.uleb128 0x1
 3293 0230 0000 0000 		.long	0x0
 3294 0234 0000 0000 		.long	0x0
 3295               	.LLST21:
 3296 0238 CA04 0000 		.long	.LVL33-.Ltext0
 3297 023c D005 0000 		.long	.LVL40-.Ltext0
 3298 0240 0C00      		.word	0xc
 3299 0242 56        		.byte	0x56
 3300 0243 93        		.byte	0x93
 3301 0244 01        		.uleb128 0x1
 3302 0245 57        		.byte	0x57
 3303 0246 93        		.byte	0x93
 3304 0247 01        		.uleb128 0x1
 3305 0248 58        		.byte	0x58
 3306 0249 93        		.byte	0x93
 3307 024a 01        		.uleb128 0x1
 3308 024b 59        		.byte	0x59
 3309 024c 93        		.byte	0x93
 3310 024d 01        		.uleb128 0x1
 3311 024e 0000 0000 		.long	0x0
 3312 0252 0000 0000 		.long	0x0
 3313               	.LLST22:
 3314 0256 0605 0000 		.long	.LVL35-.Ltext0
 3315 025a C005 0000 		.long	.LVL38-.Ltext0
 3316 025e 0C00      		.word	0xc
 3317 0260 5E        		.byte	0x5e
 3318 0261 93        		.byte	0x93
 3319 0262 01        		.uleb128 0x1
 3320 0263 5F        		.byte	0x5f
 3321 0264 93        		.byte	0x93
 3322 0265 01        		.uleb128 0x1
 3323 0266 60        		.byte	0x60
 3324 0267 93        		.byte	0x93
 3325 0268 01        		.uleb128 0x1
 3326 0269 61        		.byte	0x61
GAS LISTING C:\DOKUME~1\Romahn\LOKALE~1\Temp/ccAI76Wf.s 			page 63


 3327 026a 93        		.byte	0x93
 3328 026b 01        		.uleb128 0x1
 3329 026c 0000 0000 		.long	0x0
 3330 0270 0000 0000 		.long	0x0
 3331               	.LLST24:
 3332 0274 DA05 0000 		.long	.LVL43-.Ltext0
 3333 0278 1A06 0000 		.long	.LVL46-.Ltext0
 3334 027c 0C00      		.word	0xc
 3335 027e 66        		.byte	0x66
 3336 027f 93        		.byte	0x93
 3337 0280 01        		.uleb128 0x1
 3338 0281 67        		.byte	0x67
 3339 0282 93        		.byte	0x93
 3340 0283 01        		.uleb128 0x1
 3341 0284 68        		.byte	0x68
 3342 0285 93        		.byte	0x93
 3343 0286 01        		.uleb128 0x1
 3344 0287 69        		.byte	0x69
 3345 0288 93        		.byte	0x93
 3346 0289 01        		.uleb128 0x1
 3347 028a 1A06 0000 		.long	.LVL46-.Ltext0
 3348 028e 4406 0000 		.long	.LVL49-.Ltext0
 3349 0292 0C00      		.word	0xc
 3350 0294 5A        		.byte	0x5a
 3351 0295 93        		.byte	0x93
 3352 0296 01        		.uleb128 0x1
 3353 0297 5B        		.byte	0x5b
 3354 0298 93        		.byte	0x93
 3355 0299 01        		.uleb128 0x1
 3356 029a 5C        		.byte	0x5c
 3357 029b 93        		.byte	0x93
 3358 029c 01        		.uleb128 0x1
 3359 029d 5D        		.byte	0x5d
 3360 029e 93        		.byte	0x93
 3361 029f 01        		.uleb128 0x1
 3362 02a0 0000 0000 		.long	0x0
 3363 02a4 0000 0000 		.long	0x0
 3364               	.LLST25:
 3365 02a8 DA05 0000 		.long	.LVL43-.Ltext0
 3366 02ac 2206 0000 		.long	.LVL47-.Ltext0
 3367 02b0 0C00      		.word	0xc
 3368 02b2 62        		.byte	0x62
 3369 02b3 93        		.byte	0x93
 3370 02b4 01        		.uleb128 0x1
 3371 02b5 63        		.byte	0x63
 3372 02b6 93        		.byte	0x93
 3373 02b7 01        		.uleb128 0x1
 3374 02b8 64        		.byte	0x64
 3375 02b9 93        		.byte	0x93
 3376 02ba 01        		.uleb128 0x1
 3377 02bb 65        		.byte	0x65
 3378 02bc 93        		.byte	0x93
 3379 02bd 01        		.uleb128 0x1
 3380 02be 2206 0000 		.long	.LVL47-.Ltext0
 3381 02c2 B406 0000 		.long	.LVL50-.Ltext0
 3382 02c6 0C00      		.word	0xc
 3383 02c8 56        		.byte	0x56
GAS LISTING C:\DOKUME~1\Romahn\LOKALE~1\Temp/ccAI76Wf.s 			page 64


 3384 02c9 93        		.byte	0x93
 3385 02ca 01        		.uleb128 0x1
 3386 02cb 57        		.byte	0x57
 3387 02cc 93        		.byte	0x93
 3388 02cd 01        		.uleb128 0x1
 3389 02ce 58        		.byte	0x58
 3390 02cf 93        		.byte	0x93
 3391 02d0 01        		.uleb128 0x1
 3392 02d1 59        		.byte	0x59
 3393 02d2 93        		.byte	0x93
 3394 02d3 01        		.uleb128 0x1
 3395 02d4 0000 0000 		.long	0x0
 3396 02d8 0000 0000 		.long	0x0
 3397               	.LLST26:
 3398 02dc DA05 0000 		.long	.LVL43-.Ltext0
 3399 02e0 F405 0000 		.long	.LVL44-.Ltext0
 3400 02e4 0C00      		.word	0xc
 3401 02e6 5E        		.byte	0x5e
 3402 02e7 93        		.byte	0x93
 3403 02e8 01        		.uleb128 0x1
 3404 02e9 5F        		.byte	0x5f
 3405 02ea 93        		.byte	0x93
 3406 02eb 01        		.uleb128 0x1
 3407 02ec 60        		.byte	0x60
 3408 02ed 93        		.byte	0x93
 3409 02ee 01        		.uleb128 0x1
 3410 02ef 61        		.byte	0x61
 3411 02f0 93        		.byte	0x93
 3412 02f1 01        		.uleb128 0x1
 3413 02f2 1206 0000 		.long	.LVL45-.Ltext0
 3414 02f6 2C06 0000 		.long	.LVL48-.Ltext0
 3415 02fa 0C00      		.word	0xc
 3416 02fc 5E        		.byte	0x5e
 3417 02fd 93        		.byte	0x93
 3418 02fe 01        		.uleb128 0x1
 3419 02ff 5F        		.byte	0x5f
 3420 0300 93        		.byte	0x93
 3421 0301 01        		.uleb128 0x1
 3422 0302 60        		.byte	0x60
 3423 0303 93        		.byte	0x93
 3424 0304 01        		.uleb128 0x1
 3425 0305 61        		.byte	0x61
 3426 0306 93        		.byte	0x93
 3427 0307 01        		.uleb128 0x1
 3428 0308 2C06 0000 		.long	.LVL48-.Ltext0
 3429 030c BC06 0000 		.long	.LVL51-.Ltext0
 3430 0310 0C00      		.word	0xc
 3431 0312 52        		.byte	0x52
 3432 0313 93        		.byte	0x93
 3433 0314 01        		.uleb128 0x1
 3434 0315 53        		.byte	0x53
 3435 0316 93        		.byte	0x93
 3436 0317 01        		.uleb128 0x1
 3437 0318 54        		.byte	0x54
 3438 0319 93        		.byte	0x93
 3439 031a 01        		.uleb128 0x1
 3440 031b 55        		.byte	0x55
GAS LISTING C:\DOKUME~1\Romahn\LOKALE~1\Temp/ccAI76Wf.s 			page 65


 3441 031c 93        		.byte	0x93
 3442 031d 01        		.uleb128 0x1
 3443 031e 0000 0000 		.long	0x0
 3444 0322 0000 0000 		.long	0x0
 3445               	.LLST28:
 3446 0326 BE06 0000 		.long	.LVL52-.Ltext0
 3447 032a D406 0000 		.long	.LVL54-.Ltext0
 3448 032e 0600      		.word	0x6
 3449 0330 68        		.byte	0x68
 3450 0331 93        		.byte	0x93
 3451 0332 01        		.uleb128 0x1
 3452 0333 69        		.byte	0x69
 3453 0334 93        		.byte	0x93
 3454 0335 01        		.uleb128 0x1
 3455 0336 D406 0000 		.long	.LVL54-.Ltext0
 3456 033a 0C07 0000 		.long	.LVL60-.Ltext0
 3457 033e 0600      		.word	0x6
 3458 0340 6E        		.byte	0x6e
 3459 0341 93        		.byte	0x93
 3460 0342 01        		.uleb128 0x1
 3461 0343 6F        		.byte	0x6f
 3462 0344 93        		.byte	0x93
 3463 0345 01        		.uleb128 0x1
 3464 0346 0000 0000 		.long	0x0
 3465 034a 0000 0000 		.long	0x0
 3466               	.LLST29:
 3467 034e BE06 0000 		.long	.LVL52-.Ltext0
 3468 0352 C606 0000 		.long	.LVL53-.Ltext0
 3469 0356 0100      		.word	0x1
 3470 0358 66        		.byte	0x66
 3471 0359 C606 0000 		.long	.LVL53-.Ltext0
 3472 035d 0C07 0000 		.long	.LVL60-.Ltext0
 3473 0361 0100      		.word	0x1
 3474 0363 61        		.byte	0x61
 3475 0364 0C07 0000 		.long	.LVL60-.Ltext0
 3476 0368 2607 0000 		.long	.LFE17-.Ltext0
 3477 036c 0100      		.word	0x1
 3478 036e 6E        		.byte	0x6e
 3479 036f 0000 0000 		.long	0x0
 3480 0373 0000 0000 		.long	0x0
 3481               	.LLST30:
 3482 0377 BE06 0000 		.long	.LVL52-.Ltext0
 3483 037b DC06 0000 		.long	.LVL55-.Ltext0
 3484 037f 0100      		.word	0x1
 3485 0381 64        		.byte	0x64
 3486 0382 DC06 0000 		.long	.LVL55-.Ltext0
 3487 0386 2607 0000 		.long	.LFE17-.Ltext0
 3488 038a 0100      		.word	0x1
 3489 038c 62        		.byte	0x62
 3490 038d 0000 0000 		.long	0x0
 3491 0391 0000 0000 		.long	0x0
 3492               	.LLST37:
 3493 0395 E407 0000 		.long	.LVL62-.Ltext0
 3494 0399 EA07 0000 		.long	.LVL63-.Ltext0
 3495 039d 0100      		.word	0x1
 3496 039f 68        		.byte	0x68
 3497 03a0 EE07 0000 		.long	.LVL64-.Ltext0
GAS LISTING C:\DOKUME~1\Romahn\LOKALE~1\Temp/ccAI76Wf.s 			page 66


 3498 03a4 F007 0000 		.long	.LVL65-.Ltext0
 3499 03a8 0100      		.word	0x1
 3500 03aa 68        		.byte	0x68
 3501 03ab F007 0000 		.long	.LVL65-.Ltext0
 3502 03af E408 0000 		.long	.LVL66-.Ltext0
 3503 03b3 0100      		.word	0x1
 3504 03b5 69        		.byte	0x69
 3505 03b6 0000 0000 		.long	0x0
 3506 03ba 0000 0000 		.long	0x0
 3507               	.LLST39:
 3508 03be D20A 0000 		.long	.LVL72-.Ltext0
 3509 03c2 660C 0000 		.long	.LVL83-.Ltext0
 3510 03c6 0200      		.word	0x2
 3511 03c8 8C        		.byte	0x8c
 3512 03c9 02        		.sleb128 2
 3513 03ca 0000 0000 		.long	0x0
 3514 03ce 0000 0000 		.long	0x0
 3515               	.LLST40:
 3516 03d2 E009 0000 		.long	.LVL69-.Ltext0
 3517 03d6 560D 0000 		.long	.LVL84-.Ltext0
 3518 03da 0C00      		.word	0xc
 3519 03dc 58        		.byte	0x58
 3520 03dd 93        		.byte	0x93
 3521 03de 01        		.uleb128 0x1
 3522 03df 59        		.byte	0x59
 3523 03e0 93        		.byte	0x93
 3524 03e1 01        		.uleb128 0x1
 3525 03e2 5A        		.byte	0x5a
 3526 03e3 93        		.byte	0x93
 3527 03e4 01        		.uleb128 0x1
 3528 03e5 5B        		.byte	0x5b
 3529 03e6 93        		.byte	0x93
 3530 03e7 01        		.uleb128 0x1
 3531 03e8 0000 0000 		.long	0x0
 3532 03ec 0000 0000 		.long	0x0
 3533               	.LLST41:
 3534 03f0 AE0B 0000 		.long	.LVL81-.Ltext0
 3535 03f4 F20B 0000 		.long	.LVL82-.Ltext0
 3536 03f8 0C00      		.word	0xc
 3537 03fa 5E        		.byte	0x5e
 3538 03fb 93        		.byte	0x93
 3539 03fc 01        		.uleb128 0x1
 3540 03fd 5F        		.byte	0x5f
 3541 03fe 93        		.byte	0x93
 3542 03ff 01        		.uleb128 0x1
 3543 0400 60        		.byte	0x60
 3544 0401 93        		.byte	0x93
 3545 0402 01        		.uleb128 0x1
 3546 0403 61        		.byte	0x61
 3547 0404 93        		.byte	0x93
 3548 0405 01        		.uleb128 0x1
 3549 0406 0000 0000 		.long	0x0
 3550 040a 0000 0000 		.long	0x0
 3551               	.LLST42:
 3552 040e 080B 0000 		.long	.LVL73-.Ltext0
 3553 0412 440B 0000 		.long	.LVL75-.Ltext0
 3554 0416 0C00      		.word	0xc
GAS LISTING C:\DOKUME~1\Romahn\LOKALE~1\Temp/ccAI76Wf.s 			page 67


 3555 0418 66        		.byte	0x66
 3556 0419 93        		.byte	0x93
 3557 041a 01        		.uleb128 0x1
 3558 041b 67        		.byte	0x67
 3559 041c 93        		.byte	0x93
 3560 041d 01        		.uleb128 0x1
 3561 041e 68        		.byte	0x68
 3562 041f 93        		.byte	0x93
 3563 0420 01        		.uleb128 0x1
 3564 0421 69        		.byte	0x69
 3565 0422 93        		.byte	0x93
 3566 0423 01        		.uleb128 0x1
 3567 0424 0000 0000 		.long	0x0
 3568 0428 0000 0000 		.long	0x0
 3569               	.LLST43:
 3570 042c 5E0B 0000 		.long	.LVL76-.Ltext0
 3571 0430 9C0B 0000 		.long	.LVL80-.Ltext0
 3572 0434 0C00      		.word	0xc
 3573 0436 66        		.byte	0x66
 3574 0437 93        		.byte	0x93
 3575 0438 01        		.uleb128 0x1
 3576 0439 67        		.byte	0x67
 3577 043a 93        		.byte	0x93
 3578 043b 01        		.uleb128 0x1
 3579 043c 68        		.byte	0x68
 3580 043d 93        		.byte	0x93
 3581 043e 01        		.uleb128 0x1
 3582 043f 69        		.byte	0x69
 3583 0440 93        		.byte	0x93
 3584 0441 01        		.uleb128 0x1
 3585 0442 0000 0000 		.long	0x0
 3586 0446 0000 0000 		.long	0x0
 3587               	.LLST45:
 3588 044a 660D 0000 		.long	.LVL85-.Ltext0
 3589 044e 760D 0000 		.long	.LVL87-.Ltext0
 3590 0452 0600      		.word	0x6
 3591 0454 68        		.byte	0x68
 3592 0455 93        		.byte	0x93
 3593 0456 01        		.uleb128 0x1
 3594 0457 69        		.byte	0x69
 3595 0458 93        		.byte	0x93
 3596 0459 01        		.uleb128 0x1
 3597 045a 0000 0000 		.long	0x0
 3598 045e 0000 0000 		.long	0x0
 3599               	.LLST46:
 3600 0462 6C0D 0000 		.long	.LVL86-.Ltext0
 3601 0466 760D 0000 		.long	.LVL87-.Ltext0
 3602 046a 0600      		.word	0x6
 3603 046c 6E        		.byte	0x6e
 3604 046d 93        		.byte	0x93
 3605 046e 01        		.uleb128 0x1
 3606 046f 6F        		.byte	0x6f
 3607 0470 93        		.byte	0x93
 3608 0471 01        		.uleb128 0x1
 3609 0472 0000 0000 		.long	0x0
 3610 0476 0000 0000 		.long	0x0
 3611               	.LLST47:
GAS LISTING C:\DOKUME~1\Romahn\LOKALE~1\Temp/ccAI76Wf.s 			page 68


 3612 047a 7A0D 0000 		.long	.LVL88-.Ltext0
 3613 047e 8A0D 0000 		.long	.LVL90-.Ltext0
 3614 0482 0600      		.word	0x6
 3615 0484 68        		.byte	0x68
 3616 0485 93        		.byte	0x93
 3617 0486 01        		.uleb128 0x1
 3618 0487 69        		.byte	0x69
 3619 0488 93        		.byte	0x93
 3620 0489 01        		.uleb128 0x1
 3621 048a 0000 0000 		.long	0x0
 3622 048e 0000 0000 		.long	0x0
 3623               	.LLST48:
 3624 0492 800D 0000 		.long	.LVL89-.Ltext0
 3625 0496 8C0D 0000 		.long	.LVL91-.Ltext0
 3626 049a 0600      		.word	0x6
 3627 049c 6E        		.byte	0x6e
 3628 049d 93        		.byte	0x93
 3629 049e 01        		.uleb128 0x1
 3630 049f 6F        		.byte	0x6f
 3631 04a0 93        		.byte	0x93
 3632 04a1 01        		.uleb128 0x1
 3633 04a2 0000 0000 		.long	0x0
 3634 04a6 0000 0000 		.long	0x0
 3635               	.LLST49:
 3636 04aa 980D 0000 		.long	.LVL92-.Ltext0
 3637 04ae BE0D 0000 		.long	.LVL95-.Ltext0
 3638 04b2 0600      		.word	0x6
 3639 04b4 68        		.byte	0x68
 3640 04b5 93        		.byte	0x93
 3641 04b6 01        		.uleb128 0x1
 3642 04b7 69        		.byte	0x69
 3643 04b8 93        		.byte	0x93
 3644 04b9 01        		.uleb128 0x1
 3645 04ba 0000 0000 		.long	0x0
 3646 04be 0000 0000 		.long	0x0
 3647               	.LLST50:
 3648 04c2 9E0D 0000 		.long	.LVL93-.Ltext0
 3649 04c6 D00D 0000 		.long	.LVL96-.Ltext0
 3650 04ca 0600      		.word	0x6
 3651 04cc 6E        		.byte	0x6e
 3652 04cd 93        		.byte	0x93
 3653 04ce 01        		.uleb128 0x1
 3654 04cf 6F        		.byte	0x6f
 3655 04d0 93        		.byte	0x93
 3656 04d1 01        		.uleb128 0x1
 3657 04d2 180E 0000 		.long	.LVL99-.Ltext0
 3658 04d6 1A0E 0000 		.long	.LVL100-.Ltext0
 3659 04da 0600      		.word	0x6
 3660 04dc 6E        		.byte	0x6e
 3661 04dd 93        		.byte	0x93
 3662 04de 01        		.uleb128 0x1
 3663 04df 6F        		.byte	0x6f
 3664 04e0 93        		.byte	0x93
 3665 04e1 01        		.uleb128 0x1
 3666 04e2 0000 0000 		.long	0x0
 3667 04e6 0000 0000 		.long	0x0
 3668               	.LLST51:
GAS LISTING C:\DOKUME~1\Romahn\LOKALE~1\Temp/ccAI76Wf.s 			page 69


 3669 04ea B40D 0000 		.long	.LVL94-.Ltext0
 3670 04ee D00D 0000 		.long	.LVL96-.Ltext0
 3671 04f2 0600      		.word	0x6
 3672 04f4 62        		.byte	0x62
 3673 04f5 93        		.byte	0x93
 3674 04f6 01        		.uleb128 0x1
 3675 04f7 63        		.byte	0x63
 3676 04f8 93        		.byte	0x93
 3677 04f9 01        		.uleb128 0x1
 3678 04fa 180E 0000 		.long	.LVL99-.Ltext0
 3679 04fe 1A0E 0000 		.long	.LVL100-.Ltext0
 3680 0502 0600      		.word	0x6
 3681 0504 62        		.byte	0x62
 3682 0505 93        		.byte	0x93
 3683 0506 01        		.uleb128 0x1
 3684 0507 63        		.byte	0x63
 3685 0508 93        		.byte	0x93
 3686 0509 01        		.uleb128 0x1
 3687 050a 0000 0000 		.long	0x0
 3688 050e 0000 0000 		.long	0x0
 3689               	.LLST52:
 3690 0512 EC0D 0000 		.long	.LVL97-.Ltext0
 3691 0516 FA0D 0000 		.long	.LVL98-.Ltext0
 3692 051a 0600      		.word	0x6
 3693 051c 68        		.byte	0x68
 3694 051d 93        		.byte	0x93
 3695 051e 01        		.uleb128 0x1
 3696 051f 69        		.byte	0x69
 3697 0520 93        		.byte	0x93
 3698 0521 01        		.uleb128 0x1
 3699 0522 0000 0000 		.long	0x0
 3700 0526 0000 0000 		.long	0x0
 3701               		.section	.debug_info
 3702 0000 E20D 0000 		.long	0xde2
 3703 0004 0200      		.word	0x2
 3704 0006 0000 0000 		.long	.Ldebug_abbrev0
 3705 000a 04        		.byte	0x4
 3706 000b 01        		.uleb128 0x1
 3707 000c 0000 0000 		.long	.LASF121
 3708 0010 01        		.byte	0x1
 3709 0011 0000 0000 		.long	.LASF122
 3710 0015 0000 0000 		.long	.LASF123
 3711 0019 0000 0000 		.long	.Ltext0
 3712 001d 0000 0000 		.long	.Letext0
 3713 0021 0000 0000 		.long	.Ldebug_line0
 3714 0025 02        		.uleb128 0x2
 3715 0026 0000 0000 		.long	.LASF0
 3716 002a 04        		.byte	0x4
 3717 002b 79        		.byte	0x79
 3718 002c 3000 0000 		.long	0x30
 3719 0030 03        		.uleb128 0x3
 3720 0031 01        		.byte	0x1
 3721 0032 06        		.byte	0x6
 3722 0033 0000 0000 		.long	.LASF2
 3723 0037 02        		.uleb128 0x2
 3724 0038 0000 0000 		.long	.LASF1
 3725 003c 04        		.byte	0x4
GAS LISTING C:\DOKUME~1\Romahn\LOKALE~1\Temp/ccAI76Wf.s 			page 70


 3726 003d 7A        		.byte	0x7a
 3727 003e 4200 0000 		.long	0x42
 3728 0042 03        		.uleb128 0x3
 3729 0043 01        		.byte	0x1
 3730 0044 08        		.byte	0x8
 3731 0045 0000 0000 		.long	.LASF3
 3732 0049 02        		.uleb128 0x2
 3733 004a 0000 0000 		.long	.LASF4
 3734 004e 04        		.byte	0x4
 3735 004f 7B        		.byte	0x7b
 3736 0050 5400 0000 		.long	0x54
 3737 0054 04        		.uleb128 0x4
 3738 0055 02        		.byte	0x2
 3739 0056 05        		.byte	0x5
 3740 0057 696E 7400 		.string	"int"
 3741 005b 02        		.uleb128 0x2
 3742 005c 0000 0000 		.long	.LASF5
 3743 0060 04        		.byte	0x4
 3744 0061 7C        		.byte	0x7c
 3745 0062 6600 0000 		.long	0x66
 3746 0066 03        		.uleb128 0x3
 3747 0067 02        		.byte	0x2
 3748 0068 07        		.byte	0x7
 3749 0069 0000 0000 		.long	.LASF6
 3750 006d 03        		.uleb128 0x3
 3751 006e 04        		.byte	0x4
 3752 006f 05        		.byte	0x5
 3753 0070 0000 0000 		.long	.LASF7
 3754 0074 02        		.uleb128 0x2
 3755 0075 0000 0000 		.long	.LASF8
 3756 0079 04        		.byte	0x4
 3757 007a 7E        		.byte	0x7e
 3758 007b 7F00 0000 		.long	0x7f
 3759 007f 03        		.uleb128 0x3
 3760 0080 04        		.byte	0x4
 3761 0081 07        		.byte	0x7
 3762 0082 0000 0000 		.long	.LASF9
 3763 0086 03        		.uleb128 0x3
 3764 0087 08        		.byte	0x8
 3765 0088 05        		.byte	0x5
 3766 0089 0000 0000 		.long	.LASF10
 3767 008d 03        		.uleb128 0x3
 3768 008e 08        		.byte	0x8
 3769 008f 07        		.byte	0x7
 3770 0090 0000 0000 		.long	.LASF11
 3771 0094 02        		.uleb128 0x2
 3772 0095 0000 0000 		.long	.LASF12
 3773 0099 05        		.byte	0x5
 3774 009a D4        		.byte	0xd4
 3775 009b 9F00 0000 		.long	0x9f
 3776 009f 05        		.uleb128 0x5
 3777 00a0 01        		.byte	0x1
 3778 00a1 08        		.byte	0x8
 3779 00a2 03        		.uleb128 0x3
 3780 00a3 01        		.byte	0x1
 3781 00a4 08        		.byte	0x8
 3782 00a5 0000 0000 		.long	.LASF13
GAS LISTING C:\DOKUME~1\Romahn\LOKALE~1\Temp/ccAI76Wf.s 			page 71


 3783 00a9 06        		.uleb128 0x6
 3784 00aa 11        		.byte	0x11
 3785 00ab 01        		.byte	0x1
 3786 00ac 4301      		.word	0x143
 3787 00ae 5801 0000 		.long	0x158
 3788 00b2 07        		.uleb128 0x7
 3789 00b3 0000 0000 		.long	.LASF14
 3790 00b7 01        		.byte	0x1
 3791 00b8 4401      		.word	0x144
 3792 00ba 3700 0000 		.long	0x37
 3793 00be 02        		.byte	0x2
 3794 00bf 23        		.byte	0x23
 3795 00c0 00        		.uleb128 0x0
 3796 00c1 07        		.uleb128 0x7
 3797 00c2 0000 0000 		.long	.LASF15
 3798 00c6 01        		.byte	0x1
 3799 00c7 4501      		.word	0x145
 3800 00c9 7400 0000 		.long	0x74
 3801 00cd 02        		.byte	0x2
 3802 00ce 23        		.byte	0x23
 3803 00cf 01        		.uleb128 0x1
 3804 00d0 07        		.uleb128 0x7
 3805 00d1 0000 0000 		.long	.LASF16
 3806 00d5 01        		.byte	0x1
 3807 00d6 4601      		.word	0x146
 3808 00d8 5B00 0000 		.long	0x5b
 3809 00dc 02        		.byte	0x2
 3810 00dd 23        		.byte	0x23
 3811 00de 05        		.uleb128 0x5
 3812 00df 07        		.uleb128 0x7
 3813 00e0 0000 0000 		.long	.LASF17
 3814 00e4 01        		.byte	0x1
 3815 00e5 4701      		.word	0x147
 3816 00e7 4900 0000 		.long	0x49
 3817 00eb 02        		.byte	0x2
 3818 00ec 23        		.byte	0x23
 3819 00ed 07        		.uleb128 0x7
 3820 00ee 07        		.uleb128 0x7
 3821 00ef 0000 0000 		.long	.LASF18
 3822 00f3 01        		.byte	0x1
 3823 00f4 4801      		.word	0x148
 3824 00f6 3700 0000 		.long	0x37
 3825 00fa 02        		.byte	0x2
 3826 00fb 23        		.byte	0x23
 3827 00fc 09        		.uleb128 0x9
 3828 00fd 07        		.uleb128 0x7
 3829 00fe 0000 0000 		.long	.LASF19
 3830 0102 01        		.byte	0x1
 3831 0103 4901      		.word	0x149
 3832 0105 3700 0000 		.long	0x37
 3833 0109 02        		.byte	0x2
 3834 010a 23        		.byte	0x23
 3835 010b 0A        		.uleb128 0xa
 3836 010c 07        		.uleb128 0x7
 3837 010d 0000 0000 		.long	.LASF20
 3838 0111 01        		.byte	0x1
 3839 0112 4A01      		.word	0x14a
GAS LISTING C:\DOKUME~1\Romahn\LOKALE~1\Temp/ccAI76Wf.s 			page 72


 3840 0114 3700 0000 		.long	0x37
 3841 0118 02        		.byte	0x2
 3842 0119 23        		.byte	0x23
 3843 011a 0B        		.uleb128 0xb
 3844 011b 07        		.uleb128 0x7
 3845 011c 0000 0000 		.long	.LASF21
 3846 0120 01        		.byte	0x1
 3847 0121 4B01      		.word	0x14b
 3848 0123 3700 0000 		.long	0x37
 3849 0127 02        		.byte	0x2
 3850 0128 23        		.byte	0x23
 3851 0129 0C        		.uleb128 0xc
 3852 012a 08        		.uleb128 0x8
 3853 012b 6461 7900 		.string	"day"
 3854 012f 01        		.byte	0x1
 3855 0130 4C01      		.word	0x14c
 3856 0132 3700 0000 		.long	0x37
 3857 0136 02        		.byte	0x2
 3858 0137 23        		.byte	0x23
 3859 0138 0D        		.uleb128 0xd
 3860 0139 07        		.uleb128 0x7
 3861 013a 0000 0000 		.long	.LASF22
 3862 013e 01        		.byte	0x1
 3863 013f 4D01      		.word	0x14d
 3864 0141 3700 0000 		.long	0x37
 3865 0145 02        		.byte	0x2
 3866 0146 23        		.byte	0x23
 3867 0147 0E        		.uleb128 0xe
 3868 0148 07        		.uleb128 0x7
 3869 0149 0000 0000 		.long	.LASF23
 3870 014d 01        		.byte	0x1
 3871 014e 4E01      		.word	0x14e
 3872 0150 5B00 0000 		.long	0x5b
 3873 0154 02        		.byte	0x2
 3874 0155 23        		.byte	0x23
 3875 0156 0F        		.uleb128 0xf
 3876 0157 00        		.byte	0x0
 3877 0158 09        		.uleb128 0x9
 3878 0159 0000 0000 		.long	.LASF24
 3879 015d 01        		.byte	0x1
 3880 015e 4F01      		.word	0x14f
 3881 0160 A900 0000 		.long	0xa9
 3882 0164 0A        		.uleb128 0xa
 3883 0165 0000 0000 		.long	.LASF29
 3884 0169 02        		.byte	0x2
 3885 016a 68        		.byte	0x68
 3886 016b 01        		.byte	0x1
 3887 016c 03        		.byte	0x3
 3888 016d 7D01 0000 		.long	0x17d
 3889 0171 0B        		.uleb128 0xb
 3890 0172 0000 0000 		.long	.LASF27
 3891 0176 02        		.byte	0x2
 3892 0177 67        		.byte	0x67
 3893 0178 5B00 0000 		.long	0x5b
 3894 017c 00        		.byte	0x0
 3895 017d 0C        		.uleb128 0xc
 3896 017e 01        		.byte	0x1
GAS LISTING C:\DOKUME~1\Romahn\LOKALE~1\Temp/ccAI76Wf.s 			page 73


 3897 017f 0000 0000 		.long	.LASF25
 3898 0183 01        		.byte	0x1
 3899 0184 6C        		.byte	0x6c
 3900 0185 01        		.byte	0x1
 3901 0186 5400 0000 		.long	0x54
 3902 018a 01        		.byte	0x1
 3903 018b 9901 0000 		.long	0x199
 3904 018f 0D        		.uleb128 0xd
 3905 0190 7400      		.string	"t"
 3906 0192 01        		.byte	0x1
 3907 0193 6E        		.byte	0x6e
 3908 0194 5400 0000 		.long	0x54
 3909 0198 00        		.byte	0x0
 3910 0199 0E        		.uleb128 0xe
 3911 019a 01        		.byte	0x1
 3912 019b 0000 0000 		.long	.LASF26
 3913 019f 01        		.byte	0x1
 3914 01a0 5501      		.word	0x155
 3915 01a2 01        		.byte	0x1
 3916 01a3 5B00 0000 		.long	0x5b
 3917 01a7 01        		.byte	0x1
 3918 01a8 B901 0000 		.long	0x1b9
 3919 01ac 0F        		.uleb128 0xf
 3920 01ad 7661 6C00 		.string	"val"
 3921 01b1 01        		.byte	0x1
 3922 01b2 5401      		.word	0x154
 3923 01b4 5B00 0000 		.long	0x5b
 3924 01b8 00        		.byte	0x0
 3925 01b9 0E        		.uleb128 0xe
 3926 01ba 01        		.byte	0x1
 3927 01bb 0000 0000 		.long	.LASF28
 3928 01bf 01        		.byte	0x1
 3929 01c0 5B01      		.word	0x15b
 3930 01c2 01        		.byte	0x1
 3931 01c3 7400 0000 		.long	0x74
 3932 01c7 01        		.byte	0x1
 3933 01c8 D901 0000 		.long	0x1d9
 3934 01cc 0F        		.uleb128 0xf
 3935 01cd 7661 6C00 		.string	"val"
 3936 01d1 01        		.byte	0x1
 3937 01d2 5A01      		.word	0x15a
 3938 01d4 7400 0000 		.long	0x74
 3939 01d8 00        		.byte	0x0
 3940 01d9 0A        		.uleb128 0xa
 3941 01da 0000 0000 		.long	.LASF30
 3942 01de 03        		.byte	0x3
 3943 01df 6F        		.byte	0x6f
 3944 01e0 01        		.byte	0x1
 3945 01e1 03        		.byte	0x3
 3946 01e2 0A02 0000 		.long	0x20a
 3947 01e6 0B        		.uleb128 0xb
 3948 01e7 0000 0000 		.long	.LASF31
 3949 01eb 03        		.byte	0x3
 3950 01ec 6E        		.byte	0x6e
 3951 01ed 0A02 0000 		.long	0x20a
 3952 01f1 10        		.uleb128 0x10
 3953 01f2 0000 0000 		.long	.LASF32
GAS LISTING C:\DOKUME~1\Romahn\LOKALE~1\Temp/ccAI76Wf.s 			page 74


 3954 01f6 03        		.byte	0x3
 3955 01f7 70        		.byte	0x70
 3956 01f8 5B00 0000 		.long	0x5b
 3957 01fc 10        		.uleb128 0x10
 3958 01fd 0000 0000 		.long	.LASF33
 3959 0201 03        		.byte	0x3
 3960 0202 71        		.byte	0x71
 3961 0203 0A02 0000 		.long	0x20a
 3962 0207 11        		.uleb128 0x11
 3963 0208 11        		.uleb128 0x11
 3964 0209 00        		.byte	0x0
 3965 020a 03        		.uleb128 0x3
 3966 020b 04        		.byte	0x4
 3967 020c 04        		.byte	0x4
 3968 020d 0000 0000 		.long	.LASF34
 3969 0211 12        		.uleb128 0x12
 3970 0212 7D01 0000 		.long	0x17d
 3971 0216 0000 0000 		.long	.LFB9
 3972 021a 0000 0000 		.long	.LFE9
 3973 021e 02        		.byte	0x2
 3974 021f 90        		.byte	0x90
 3975 0220 20        		.uleb128 0x20
 3976 0221 2F02 0000 		.long	0x22f
 3977 0225 13        		.uleb128 0x13
 3978 0226 8F01 0000 		.long	0x18f
 3979 022a 0000 0000 		.long	.LLST1
 3980 022e 00        		.byte	0x0
 3981 022f 14        		.uleb128 0x14
 3982 0230 01        		.byte	0x1
 3983 0231 0000 0000 		.long	.LASF124
 3984 0235 01        		.byte	0x1
 3985 0236 7D        		.byte	0x7d
 3986 0237 01        		.byte	0x1
 3987 0238 A200 0000 		.long	0xa2
 3988 023c 0000 0000 		.long	.LFB10
 3989 0240 0000 0000 		.long	.LFE10
 3990 0244 02        		.byte	0x2
 3991 0245 90        		.byte	0x90
 3992 0246 20        		.uleb128 0x20
 3993 0247 15        		.uleb128 0x15
 3994 0248 01        		.byte	0x1
 3995 0249 0000 0000 		.long	.LASF35
 3996 024d 01        		.byte	0x1
 3997 024e D3        		.byte	0xd3
 3998 024f 01        		.byte	0x1
 3999 0250 A200 0000 		.long	0xa2
 4000 0254 0000 0000 		.long	.LFB11
 4001 0258 0000 0000 		.long	.LFE11
 4002 025c 02        		.byte	0x2
 4003 025d 90        		.byte	0x90
 4004 025e 20        		.uleb128 0x20
 4005 025f D802 0000 		.long	0x2d8
 4006 0263 16        		.uleb128 0x16
 4007 0264 7D01 0000 		.long	0x17d
 4008 0268 0000 0000 		.long	.LBB46
 4009 026c 0000 0000 		.long	.LBE46
 4010 0270 01        		.byte	0x1
GAS LISTING C:\DOKUME~1\Romahn\LOKALE~1\Temp/ccAI76Wf.s 			page 75


 4011 0271 0A01      		.word	0x10a
 4012 0273 8B02 0000 		.long	0x28b
 4013 0277 17        		.uleb128 0x17
 4014 0278 0000 0000 		.long	.LBB47
 4015 027c 0000 0000 		.long	.LBE47
 4016 0280 13        		.uleb128 0x13
 4017 0281 8F01 0000 		.long	0x18f
 4018 0285 0000 0000 		.long	.LLST4
 4019 0289 00        		.byte	0x0
 4020 028a 00        		.byte	0x0
 4021 028b 16        		.uleb128 0x16
 4022 028c 7D01 0000 		.long	0x17d
 4023 0290 0000 0000 		.long	.LBB48
 4024 0294 0000 0000 		.long	.LBE48
 4025 0298 01        		.byte	0x1
 4026 0299 0A01      		.word	0x10a
 4027 029b B302 0000 		.long	0x2b3
 4028 029f 17        		.uleb128 0x17
 4029 02a0 0000 0000 		.long	.LBB49
 4030 02a4 0000 0000 		.long	.LBE49
 4031 02a8 13        		.uleb128 0x13
 4032 02a9 8F01 0000 		.long	0x18f
 4033 02ad 0000 0000 		.long	.LLST5
 4034 02b1 00        		.byte	0x0
 4035 02b2 00        		.byte	0x0
 4036 02b3 18        		.uleb128 0x18
 4037 02b4 7D01 0000 		.long	0x17d
 4038 02b8 0000 0000 		.long	.LBB50
 4039 02bc 0000 0000 		.long	.LBE50
 4040 02c0 01        		.byte	0x1
 4041 02c1 1C01      		.word	0x11c
 4042 02c3 17        		.uleb128 0x17
 4043 02c4 0000 0000 		.long	.LBB51
 4044 02c8 0000 0000 		.long	.LBE51
 4045 02cc 13        		.uleb128 0x13
 4046 02cd 8F01 0000 		.long	0x18f
 4047 02d1 0000 0000 		.long	.LLST6
 4048 02d5 00        		.byte	0x0
 4049 02d6 00        		.byte	0x0
 4050 02d7 00        		.byte	0x0
 4051 02d8 12        		.uleb128 0x12
 4052 02d9 9901 0000 		.long	0x199
 4053 02dd 0000 0000 		.long	.LFB12
 4054 02e1 0000 0000 		.long	.LFE12
 4055 02e5 02        		.byte	0x2
 4056 02e6 90        		.byte	0x90
 4057 02e7 20        		.uleb128 0x20
 4058 02e8 F602 0000 		.long	0x2f6
 4059 02ec 19        		.uleb128 0x19
 4060 02ed AC01 0000 		.long	0x1ac
 4061 02f1 0000 0000 		.long	.LLST8
 4062 02f5 00        		.byte	0x0
 4063 02f6 12        		.uleb128 0x12
 4064 02f7 B901 0000 		.long	0x1b9
 4065 02fb 0000 0000 		.long	.LFB13
 4066 02ff 0000 0000 		.long	.LFE13
 4067 0303 02        		.byte	0x2
GAS LISTING C:\DOKUME~1\Romahn\LOKALE~1\Temp/ccAI76Wf.s 			page 76


 4068 0304 90        		.byte	0x90
 4069 0305 20        		.uleb128 0x20
 4070 0306 1403 0000 		.long	0x314
 4071 030a 19        		.uleb128 0x19
 4072 030b CC01 0000 		.long	0x1cc
 4073 030f 0000 0000 		.long	.LLST10
 4074 0313 00        		.byte	0x0
 4075 0314 1A        		.uleb128 0x1a
 4076 0315 01        		.byte	0x1
 4077 0316 0000 0000 		.long	.LASF36
 4078 031a 01        		.byte	0x1
 4079 031b 6B01      		.word	0x16b
 4080 031d 01        		.byte	0x1
 4081 031e 6D00 0000 		.long	0x6d
 4082 0322 0000 0000 		.long	.LFB14
 4083 0326 0000 0000 		.long	.LFE14
 4084 032a 02        		.byte	0x2
 4085 032b 90        		.byte	0x90
 4086 032c 20        		.uleb128 0x20
 4087 032d 6203 0000 		.long	0x362
 4088 0331 1B        		.uleb128 0x1b
 4089 0332 0000 0000 		.long	.LASF37
 4090 0336 01        		.byte	0x1
 4091 0337 6A01      		.word	0x16a
 4092 0339 6D00 0000 		.long	0x6d
 4093 033d 0000 0000 		.long	.LLST12
 4094 0341 1B        		.uleb128 0x1b
 4095 0342 0000 0000 		.long	.LASF38
 4096 0346 01        		.byte	0x1
 4097 0347 6A01      		.word	0x16a
 4098 0349 6D00 0000 		.long	0x6d
 4099 034d 0000 0000 		.long	.LLST13
 4100 0351 1C        		.uleb128 0x1c
 4101 0352 4461 7900 		.string	"Day"
 4102 0356 01        		.byte	0x1
 4103 0357 6A01      		.word	0x16a
 4104 0359 6D00 0000 		.long	0x6d
 4105 035d 0000 0000 		.long	.LLST14
 4106 0361 00        		.byte	0x0
 4107 0362 1D        		.uleb128 0x1d
 4108 0363 01        		.byte	0x1
 4109 0364 0000 0000 		.long	.LASF49
 4110 0368 01        		.byte	0x1
 4111 0369 7A01      		.word	0x17a
 4112 036b 01        		.byte	0x1
 4113 036c 0000 0000 		.long	.LFB15
 4114 0370 0000 0000 		.long	.LFE15
 4115 0374 02        		.byte	0x2
 4116 0375 90        		.byte	0x90
 4117 0376 20        		.uleb128 0x20
 4118 0377 F003 0000 		.long	0x3f0
 4119 037b 1C        		.uleb128 0x1c
 4120 037c 4D6A 6400 		.string	"Mjd"
 4121 0380 01        		.byte	0x1
 4122 0381 7901      		.word	0x179
 4123 0383 6D00 0000 		.long	0x6d
 4124 0387 0000 0000 		.long	.LLST16
GAS LISTING C:\DOKUME~1\Romahn\LOKALE~1\Temp/ccAI76Wf.s 			page 77


 4125 038b 1B        		.uleb128 0x1b
 4126 038c 0000 0000 		.long	.LASF37
 4127 0390 01        		.byte	0x1
 4128 0391 7901      		.word	0x179
 4129 0393 F003 0000 		.long	0x3f0
 4130 0397 0000 0000 		.long	.LLST17
 4131 039b 1B        		.uleb128 0x1b
 4132 039c 0000 0000 		.long	.LASF38
 4133 03a0 01        		.byte	0x1
 4134 03a1 7901      		.word	0x179
 4135 03a3 F003 0000 		.long	0x3f0
 4136 03a7 0000 0000 		.long	.LLST18
 4137 03ab 1C        		.uleb128 0x1c
 4138 03ac 4461 7900 		.string	"Day"
 4139 03b0 01        		.byte	0x1
 4140 03b1 7901      		.word	0x179
 4141 03b3 F003 0000 		.long	0x3f0
 4142 03b7 0000 0000 		.long	.LLST19
 4143 03bb 1E        		.uleb128 0x1e
 4144 03bc 4A00      		.string	"J"
 4145 03be 01        		.byte	0x1
 4146 03bf 7B01      		.word	0x17b
 4147 03c1 6D00 0000 		.long	0x6d
 4148 03c5 0000 0000 		.long	.LLST20
 4149 03c9 1F        		.uleb128 0x1f
 4150 03ca 4300      		.string	"C"
 4151 03cc 01        		.byte	0x1
 4152 03cd 7B01      		.word	0x17b
 4153 03cf 6D00 0000 		.long	0x6d
 4154 03d3 1E        		.uleb128 0x1e
 4155 03d4 5900      		.string	"Y"
 4156 03d6 01        		.byte	0x1
 4157 03d7 7B01      		.word	0x17b
 4158 03d9 6D00 0000 		.long	0x6d
 4159 03dd 0000 0000 		.long	.LLST21
 4160 03e1 1E        		.uleb128 0x1e
 4161 03e2 4D00      		.string	"M"
 4162 03e4 01        		.byte	0x1
 4163 03e5 7B01      		.word	0x17b
 4164 03e7 6D00 0000 		.long	0x6d
 4165 03eb 0000 0000 		.long	.LLST22
 4166 03ef 00        		.byte	0x0
 4167 03f0 20        		.uleb128 0x20
 4168 03f1 02        		.byte	0x2
 4169 03f2 6D00 0000 		.long	0x6d
 4170 03f6 1A        		.uleb128 0x1a
 4171 03f7 01        		.byte	0x1
 4172 03f8 0000 0000 		.long	.LASF39
 4173 03fc 01        		.byte	0x1
 4174 03fd 8C01      		.word	0x18c
 4175 03ff 01        		.byte	0x1
 4176 0400 6D00 0000 		.long	0x6d
 4177 0404 0000 0000 		.long	.LFB16
 4178 0408 0000 0000 		.long	.LFE16
 4179 040c 02        		.byte	0x2
 4180 040d 90        		.byte	0x90
 4181 040e 20        		.uleb128 0x20
GAS LISTING C:\DOKUME~1\Romahn\LOKALE~1\Temp/ccAI76Wf.s 			page 78


 4182 040f 5004 0000 		.long	0x450
 4183 0413 1B        		.uleb128 0x1b
 4184 0414 0000 0000 		.long	.LASF40
 4185 0418 01        		.byte	0x1
 4186 0419 8B01      		.word	0x18b
 4187 041b 6D00 0000 		.long	0x6d
 4188 041f 0000 0000 		.long	.LLST24
 4189 0423 1B        		.uleb128 0x1b
 4190 0424 0000 0000 		.long	.LASF41
 4191 0428 01        		.byte	0x1
 4192 0429 8B01      		.word	0x18b
 4193 042b 6D00 0000 		.long	0x6d
 4194 042f 0000 0000 		.long	.LLST25
 4195 0433 1B        		.uleb128 0x1b
 4196 0434 0000 0000 		.long	.LASF42
 4197 0438 01        		.byte	0x1
 4198 0439 8B01      		.word	0x18b
 4199 043b 6D00 0000 		.long	0x6d
 4200 043f 0000 0000 		.long	.LLST26
 4201 0443 21        		.uleb128 0x21
 4202 0444 0000 0000 		.long	.LASF43
 4203 0448 01        		.byte	0x1
 4204 0449 8D01      		.word	0x18d
 4205 044b 6D00 0000 		.long	0x6d
 4206 044f 00        		.byte	0x0
 4207 0450 22        		.uleb128 0x22
 4208 0451 01        		.byte	0x1
 4209 0452 646F 7700 		.string	"dow"
 4210 0456 01        		.byte	0x1
 4211 0457 9601      		.word	0x196
 4212 0459 01        		.byte	0x1
 4213 045a 2500 0000 		.long	0x25
 4214 045e 0000 0000 		.long	.LFB17
 4215 0462 0000 0000 		.long	.LFE17
 4216 0466 02        		.byte	0x2
 4217 0467 90        		.byte	0x90
 4218 0468 20        		.uleb128 0x20
 4219 0469 A804 0000 		.long	0x4a8
 4220 046d 1C        		.uleb128 0x1c
 4221 046e 7900      		.string	"y"
 4222 0470 01        		.byte	0x1
 4223 0471 9501      		.word	0x195
 4224 0473 4900 0000 		.long	0x49
 4225 0477 0000 0000 		.long	.LLST28
 4226 047b 1C        		.uleb128 0x1c
 4227 047c 6D00      		.string	"m"
 4228 047e 01        		.byte	0x1
 4229 047f 9501      		.word	0x195
 4230 0481 2500 0000 		.long	0x25
 4231 0485 0000 0000 		.long	.LLST29
 4232 0489 1C        		.uleb128 0x1c
 4233 048a 6400      		.string	"d"
 4234 048c 01        		.byte	0x1
 4235 048d 9501      		.word	0x195
 4236 048f 2500 0000 		.long	0x25
 4237 0493 0000 0000 		.long	.LLST30
 4238 0497 23        		.uleb128 0x23
GAS LISTING C:\DOKUME~1\Romahn\LOKALE~1\Temp/ccAI76Wf.s 			page 79


 4239 0498 7400      		.string	"t"
 4240 049a 01        		.byte	0x1
 4241 049b 9701      		.word	0x197
 4242 049d E707 0000 		.long	0x7e7
 4243 04a1 05        		.byte	0x5
 4244 04a2 03        		.byte	0x3
 4245 04a3 0000 0000 		.long	t.2151
 4246 04a7 00        		.byte	0x0
 4247 04a8 24        		.uleb128 0x24
 4248 04a9 01        		.byte	0x1
 4249 04aa 0000 0000 		.long	.LASF44
 4250 04ae 01        		.byte	0x1
 4251 04af 0402      		.word	0x204
 4252 04b1 01        		.byte	0x1
 4253 04b2 0000 0000 		.long	.LFB19
 4254 04b6 0000 0000 		.long	.LFE19
 4255 04ba 02        		.byte	0x2
 4256 04bb 90        		.byte	0x90
 4257 04bc 20        		.uleb128 0x20
 4258 04bd 24        		.uleb128 0x24
 4259 04be 01        		.byte	0x1
 4260 04bf 0000 0000 		.long	.LASF45
 4261 04c3 01        		.byte	0x1
 4262 04c4 5902      		.word	0x259
 4263 04c6 01        		.byte	0x1
 4264 04c7 0000 0000 		.long	.LFB21
 4265 04cb 0000 0000 		.long	.LFE21
 4266 04cf 02        		.byte	0x2
 4267 04d0 90        		.byte	0x90
 4268 04d1 20        		.uleb128 0x20
 4269 04d2 24        		.uleb128 0x24
 4270 04d3 01        		.byte	0x1
 4271 04d4 0000 0000 		.long	.LASF46
 4272 04d8 01        		.byte	0x1
 4273 04d9 7002      		.word	0x270
 4274 04db 01        		.byte	0x1
 4275 04dc 0000 0000 		.long	.LFB22
 4276 04e0 0000 0000 		.long	.LFE22
 4277 04e4 02        		.byte	0x2
 4278 04e5 90        		.byte	0x90
 4279 04e6 20        		.uleb128 0x20
 4280 04e7 24        		.uleb128 0x24
 4281 04e8 01        		.byte	0x1
 4282 04e9 0000 0000 		.long	.LASF47
 4283 04ed 01        		.byte	0x1
 4284 04ee 7902      		.word	0x279
 4285 04f0 01        		.byte	0x1
 4286 04f1 0000 0000 		.long	.LFB23
 4287 04f5 0000 0000 		.long	.LFE23
 4288 04f9 02        		.byte	0x2
 4289 04fa 90        		.byte	0x90
 4290 04fb 20        		.uleb128 0x20
 4291 04fc 24        		.uleb128 0x24
 4292 04fd 01        		.byte	0x1
 4293 04fe 0000 0000 		.long	.LASF48
 4294 0502 01        		.byte	0x1
 4295 0503 BD02      		.word	0x2bd
GAS LISTING C:\DOKUME~1\Romahn\LOKALE~1\Temp/ccAI76Wf.s 			page 80


 4296 0505 01        		.byte	0x1
 4297 0506 0000 0000 		.long	.LFB25
 4298 050a 0000 0000 		.long	.LFE25
 4299 050e 02        		.byte	0x2
 4300 050f 90        		.byte	0x90
 4301 0510 20        		.uleb128 0x20
 4302 0511 1D        		.uleb128 0x1d
 4303 0512 01        		.byte	0x1
 4304 0513 0000 0000 		.long	.LASF50
 4305 0517 01        		.byte	0x1
 4306 0518 8102      		.word	0x281
 4307 051a 01        		.byte	0x1
 4308 051b 0000 0000 		.long	.LFB24
 4309 051f 0000 0000 		.long	.LFE24
 4310 0523 02        		.byte	0x2
 4311 0524 90        		.byte	0x90
 4312 0525 20        		.uleb128 0x20
 4313 0526 5D05 0000 		.long	0x55d
 4314 052a 1E        		.uleb128 0x1e
 4315 052b 6100      		.string	"a"
 4316 052d 01        		.byte	0x1
 4317 052e 8502      		.word	0x285
 4318 0530 4200 0000 		.long	0x42
 4319 0534 0000 0000 		.long	.LLST37
 4320 0538 25        		.uleb128 0x25
 4321 0539 0000 0000 		.long	.LASF51
 4322 053d 01        		.byte	0x1
 4323 053e 8202      		.word	0x282
 4324 0540 3700 0000 		.long	0x37
 4325 0544 05        		.byte	0x5
 4326 0545 03        		.byte	0x3
 4327 0546 0000 0000 		.long	stuff.2331
 4328 054a 25        		.uleb128 0x25
 4329 054b 0000 0000 		.long	.LASF52
 4330 054f 01        		.byte	0x1
 4331 0550 8302      		.word	0x283
 4332 0552 2500 0000 		.long	0x25
 4333 0556 05        		.byte	0x5
 4334 0557 03        		.byte	0x3
 4335 0558 0000 0000 		.long	rxBufLen.2332
 4336 055c 00        		.byte	0x0
 4337 055d 1A        		.uleb128 0x1a
 4338 055e 01        		.byte	0x1
 4339 055f 0000 0000 		.long	.LASF53
 4340 0563 01        		.byte	0x1
 4341 0564 A301      		.word	0x1a3
 4342 0566 01        		.byte	0x1
 4343 0567 A200 0000 		.long	0xa2
 4344 056b 0000 0000 		.long	.LFB18
 4345 056f 0000 0000 		.long	.LFE18
 4346 0573 02        		.byte	0x2
 4347 0574 90        		.byte	0x90
 4348 0575 20        		.uleb128 0x20
 4349 0576 4F06 0000 		.long	0x64f
 4350 057a 25        		.uleb128 0x25
 4351 057b 0000 0000 		.long	.LASF54
 4352 057f 01        		.byte	0x1
GAS LISTING C:\DOKUME~1\Romahn\LOKALE~1\Temp/ccAI76Wf.s 			page 81


 4353 0580 AC01      		.word	0x1ac
 4354 0582 A200 0000 		.long	0xa2
 4355 0586 02        		.byte	0x2
 4356 0587 8C        		.byte	0x8c
 4357 0588 01        		.sleb128 1
 4358 0589 26        		.uleb128 0x26
 4359 058a 0000 0000 		.long	.LASF37
 4360 058e 01        		.byte	0x1
 4361 058f BC01      		.word	0x1bc
 4362 0591 6D00 0000 		.long	0x6d
 4363 0595 0000 0000 		.long	.LLST39
 4364 0599 25        		.uleb128 0x25
 4365 059a 0000 0000 		.long	.LASF38
 4366 059e 01        		.byte	0x1
 4367 059f BC01      		.word	0x1bc
 4368 05a1 6D00 0000 		.long	0x6d
 4369 05a5 02        		.byte	0x2
 4370 05a6 8C        		.byte	0x8c
 4371 05a7 06        		.sleb128 6
 4372 05a8 23        		.uleb128 0x23
 4373 05a9 4461 7900 		.string	"Day"
 4374 05ad 01        		.byte	0x1
 4375 05ae BC01      		.word	0x1bc
 4376 05b0 6D00 0000 		.long	0x6d
 4377 05b4 02        		.byte	0x2
 4378 05b5 8C        		.byte	0x8c
 4379 05b6 0A        		.sleb128 10
 4380 05b7 23        		.uleb128 0x23
 4381 05b8 4D6A 6400 		.string	"Mjd"
 4382 05bc 01        		.byte	0x1
 4383 05bd BD01      		.word	0x1bd
 4384 05bf 6D00 0000 		.long	0x6d
 4385 05c3 02        		.byte	0x2
 4386 05c4 8C        		.byte	0x8c
 4387 05c5 0E        		.sleb128 14
 4388 05c6 21        		.uleb128 0x21
 4389 05c7 0000 0000 		.long	.LASF41
 4390 05cb 01        		.byte	0x1
 4391 05cc BE01      		.word	0x1be
 4392 05ce 6D00 0000 		.long	0x6d
 4393 05d2 26        		.uleb128 0x26
 4394 05d3 0000 0000 		.long	.LASF42
 4395 05d7 01        		.byte	0x1
 4396 05d8 BE01      		.word	0x1be
 4397 05da 6D00 0000 		.long	0x6d
 4398 05de 0000 0000 		.long	.LLST40
 4399 05e2 26        		.uleb128 0x26
 4400 05e3 0000 0000 		.long	.LASF55
 4401 05e7 01        		.byte	0x1
 4402 05e8 BE01      		.word	0x1be
 4403 05ea 6D00 0000 		.long	0x6d
 4404 05ee 0000 0000 		.long	.LLST41
 4405 05f2 16        		.uleb128 0x16
 4406 05f3 B901 0000 		.long	0x1b9
 4407 05f7 0000 0000 		.long	.LBB52
 4408 05fb 0000 0000 		.long	.LBE52
 4409 05ff 01        		.byte	0x1
GAS LISTING C:\DOKUME~1\Romahn\LOKALE~1\Temp/ccAI76Wf.s 			page 82


 4410 0600 B501      		.word	0x1b5
 4411 0602 0C06 0000 		.long	0x60c
 4412 0606 27        		.uleb128 0x27
 4413 0607 0A03 0000 		.long	0x30a
 4414 060b 00        		.byte	0x0
 4415 060c 17        		.uleb128 0x17
 4416 060d 0000 0000 		.long	.LBB54
 4417 0611 0000 0000 		.long	.LBE54
 4418 0615 21        		.uleb128 0x21
 4419 0616 0000 0000 		.long	.LASF56
 4420 061a 01        		.byte	0x1
 4421 061b D101      		.word	0x1d1
 4422 061d 6D00 0000 		.long	0x6d
 4423 0621 21        		.uleb128 0x21
 4424 0622 0000 0000 		.long	.LASF57
 4425 0626 01        		.byte	0x1
 4426 0627 D201      		.word	0x1d2
 4427 0629 6D00 0000 		.long	0x6d
 4428 062d 26        		.uleb128 0x26
 4429 062e 0000 0000 		.long	.LASF58
 4430 0632 01        		.byte	0x1
 4431 0633 D301      		.word	0x1d3
 4432 0635 6D00 0000 		.long	0x6d
 4433 0639 0000 0000 		.long	.LLST42
 4434 063d 26        		.uleb128 0x26
 4435 063e 0000 0000 		.long	.LASF59
 4436 0642 01        		.byte	0x1
 4437 0643 D401      		.word	0x1d4
 4438 0645 6D00 0000 		.long	0x6d
 4439 0649 0000 0000 		.long	.LLST43
 4440 064d 00        		.byte	0x0
 4441 064e 00        		.byte	0x0
 4442 064f 1A        		.uleb128 0x1a
 4443 0650 01        		.byte	0x1
 4444 0651 0000 0000 		.long	.LASF60
 4445 0655 01        		.byte	0x1
 4446 0656 1902      		.word	0x219
 4447 0658 01        		.byte	0x1
 4448 0659 5400 0000 		.long	0x54
 4449 065d 0000 0000 		.long	.LFB20
 4450 0661 0000 0000 		.long	.LFE20
 4451 0665 02        		.byte	0x2
 4452 0666 90        		.byte	0x90
 4453 0667 20        		.uleb128 0x20
 4454 0668 D407 0000 		.long	0x7d4
 4455 066c 16        		.uleb128 0x16
 4456 066d D901 0000 		.long	0x1d9
 4457 0671 0000 0000 		.long	.LBB55
 4458 0675 0000 0000 		.long	.LBE55
 4459 0679 01        		.byte	0x1
 4460 067a 1A02      		.word	0x21a
 4461 067c B706 0000 		.long	0x6b7
 4462 0680 27        		.uleb128 0x27
 4463 0681 E601 0000 		.long	0x1e6
 4464 0685 17        		.uleb128 0x17
 4465 0686 0000 0000 		.long	.LBB56
 4466 068a 0000 0000 		.long	.LBE56
GAS LISTING C:\DOKUME~1\Romahn\LOKALE~1\Temp/ccAI76Wf.s 			page 83


 4467 068e 13        		.uleb128 0x13
 4468 068f F101 0000 		.long	0x1f1
 4469 0693 0000 0000 		.long	.LLST45
 4470 0697 28        		.uleb128 0x28
 4471 0698 FC01 0000 		.long	0x1fc
 4472 069c 29        		.uleb128 0x29
 4473 069d 6401 0000 		.long	0x164
 4474 06a1 0000 0000 		.long	.LBB57
 4475 06a5 0000 0000 		.long	.LBE57
 4476 06a9 03        		.byte	0x3
 4477 06aa 7B        		.byte	0x7b
 4478 06ab 19        		.uleb128 0x19
 4479 06ac 7101 0000 		.long	0x171
 4480 06b0 0000 0000 		.long	.LLST46
 4481 06b4 00        		.byte	0x0
 4482 06b5 00        		.byte	0x0
 4483 06b6 00        		.byte	0x0
 4484 06b7 16        		.uleb128 0x16
 4485 06b8 D901 0000 		.long	0x1d9
 4486 06bc 0000 0000 		.long	.LBB59
 4487 06c0 0000 0000 		.long	.LBE59
 4488 06c4 01        		.byte	0x1
 4489 06c5 1C02      		.word	0x21c
 4490 06c7 0207 0000 		.long	0x702
 4491 06cb 27        		.uleb128 0x27
 4492 06cc E601 0000 		.long	0x1e6
 4493 06d0 17        		.uleb128 0x17
 4494 06d1 0000 0000 		.long	.LBB60
 4495 06d5 0000 0000 		.long	.LBE60
 4496 06d9 13        		.uleb128 0x13
 4497 06da F101 0000 		.long	0x1f1
 4498 06de 0000 0000 		.long	.LLST47
 4499 06e2 28        		.uleb128 0x28
 4500 06e3 FC01 0000 		.long	0x1fc
 4501 06e7 29        		.uleb128 0x29
 4502 06e8 6401 0000 		.long	0x164
 4503 06ec 0000 0000 		.long	.LBB61
 4504 06f0 0000 0000 		.long	.LBE61
 4505 06f4 03        		.byte	0x3
 4506 06f5 7B        		.byte	0x7b
 4507 06f6 19        		.uleb128 0x19
 4508 06f7 7101 0000 		.long	0x171
 4509 06fb 0000 0000 		.long	.LLST48
 4510 06ff 00        		.byte	0x0
 4511 0700 00        		.byte	0x0
 4512 0701 00        		.byte	0x0
 4513 0702 16        		.uleb128 0x16
 4514 0703 D901 0000 		.long	0x1d9
 4515 0707 0000 0000 		.long	.LBB63
 4516 070b 0000 0000 		.long	.LBE63
 4517 070f 01        		.byte	0x1
 4518 0710 2102      		.word	0x221
 4519 0712 4D07 0000 		.long	0x74d
 4520 0716 27        		.uleb128 0x27
 4521 0717 E601 0000 		.long	0x1e6
 4522 071b 17        		.uleb128 0x17
 4523 071c 0000 0000 		.long	.LBB64
GAS LISTING C:\DOKUME~1\Romahn\LOKALE~1\Temp/ccAI76Wf.s 			page 84


 4524 0720 0000 0000 		.long	.LBE64
 4525 0724 13        		.uleb128 0x13
 4526 0725 F101 0000 		.long	0x1f1
 4527 0729 0000 0000 		.long	.LLST49
 4528 072d 28        		.uleb128 0x28
 4529 072e FC01 0000 		.long	0x1fc
 4530 0732 29        		.uleb128 0x29
 4531 0733 6401 0000 		.long	0x164
 4532 0737 0000 0000 		.long	.LBB65
 4533 073b 0000 0000 		.long	.LBE65
 4534 073f 03        		.byte	0x3
 4535 0740 7B        		.byte	0x7b
 4536 0741 19        		.uleb128 0x19
 4537 0742 7101 0000 		.long	0x171
 4538 0746 0000 0000 		.long	.LLST50
 4539 074a 00        		.byte	0x0
 4540 074b 00        		.byte	0x0
 4541 074c 00        		.byte	0x0
 4542 074d 16        		.uleb128 0x16
 4543 074e 7D01 0000 		.long	0x17d
 4544 0752 0000 0000 		.long	.LBB67
 4545 0756 0000 0000 		.long	.LBE67
 4546 075a 01        		.byte	0x1
 4547 075b 2A02      		.word	0x22a
 4548 075d 7507 0000 		.long	0x775
 4549 0761 17        		.uleb128 0x17
 4550 0762 0000 0000 		.long	.LBB68
 4551 0766 0000 0000 		.long	.LBE68
 4552 076a 13        		.uleb128 0x13
 4553 076b 8F01 0000 		.long	0x18f
 4554 076f 0000 0000 		.long	.LLST51
 4555 0773 00        		.byte	0x0
 4556 0774 00        		.byte	0x0
 4557 0775 16        		.uleb128 0x16
 4558 0776 7D01 0000 		.long	0x17d
 4559 077a 0000 0000 		.long	.LBB69
 4560 077e 0000 0000 		.long	.LBE69
 4561 0782 01        		.byte	0x1
 4562 0783 2F02      		.word	0x22f
 4563 0785 9D07 0000 		.long	0x79d
 4564 0789 17        		.uleb128 0x17
 4565 078a 0000 0000 		.long	.LBB70
 4566 078e 0000 0000 		.long	.LBE70
 4567 0792 13        		.uleb128 0x13
 4568 0793 8F01 0000 		.long	0x18f
 4569 0797 0000 0000 		.long	.LLST52
 4570 079b 00        		.byte	0x0
 4571 079c 00        		.byte	0x0
 4572 079d 23        		.uleb128 0x23
 4573 079e 5F5F 6300 		.string	"__c"
 4574 07a2 01        		.byte	0x1
 4575 07a3 1F02      		.word	0x21f
 4576 07a5 FC07 0000 		.long	0x7fc
 4577 07a9 05        		.byte	0x5
 4578 07aa 03        		.byte	0x3
 4579 07ab 0000 0000 		.long	__c.2286
 4580 07af 23        		.uleb128 0x23
GAS LISTING C:\DOKUME~1\Romahn\LOKALE~1\Temp/ccAI76Wf.s 			page 85


 4581 07b0 5F5F 6300 		.string	"__c"
 4582 07b4 01        		.byte	0x1
 4583 07b5 2C02      		.word	0x22c
 4584 07b7 0108 0000 		.long	0x801
 4585 07bb 05        		.byte	0x5
 4586 07bc 03        		.byte	0x3
 4587 07bd 0000 0000 		.long	__c.2288
 4588 07c1 23        		.uleb128 0x23
 4589 07c2 5F5F 6300 		.string	"__c"
 4590 07c6 01        		.byte	0x1
 4591 07c7 2E02      		.word	0x22e
 4592 07c9 0608 0000 		.long	0x806
 4593 07cd 05        		.byte	0x5
 4594 07ce 03        		.byte	0x3
 4595 07cf 0000 0000 		.long	__c.2290
 4596 07d3 00        		.byte	0x0
 4597 07d4 2A        		.uleb128 0x2a
 4598 07d5 2500 0000 		.long	0x25
 4599 07d9 E407 0000 		.long	0x7e4
 4600 07dd 2B        		.uleb128 0x2b
 4601 07de E407 0000 		.long	0x7e4
 4602 07e2 0B        		.byte	0xb
 4603 07e3 00        		.byte	0x0
 4604 07e4 05        		.uleb128 0x5
 4605 07e5 02        		.byte	0x2
 4606 07e6 07        		.byte	0x7
 4607 07e7 2C        		.uleb128 0x2c
 4608 07e8 D407 0000 		.long	0x7d4
 4609 07ec 2A        		.uleb128 0x2a
 4610 07ed A200 0000 		.long	0xa2
 4611 07f1 FC07 0000 		.long	0x7fc
 4612 07f5 2B        		.uleb128 0x2b
 4613 07f6 E407 0000 		.long	0x7e4
 4614 07fa 10        		.byte	0x10
 4615 07fb 00        		.byte	0x0
 4616 07fc 2C        		.uleb128 0x2c
 4617 07fd EC07 0000 		.long	0x7ec
 4618 0801 2C        		.uleb128 0x2c
 4619 0802 EC07 0000 		.long	0x7ec
 4620 0806 2C        		.uleb128 0x2c
 4621 0807 EC07 0000 		.long	0x7ec
 4622 080b 2A        		.uleb128 0x2a
 4623 080c A200 0000 		.long	0xa2
 4624 0810 1B08 0000 		.long	0x81b
 4625 0814 2B        		.uleb128 0x2b
 4626 0815 E407 0000 		.long	0x7e4
 4627 0819 20        		.byte	0x20
 4628 081a 00        		.byte	0x0
 4629 081b 2D        		.uleb128 0x2d
 4630 081c 0000 0000 		.long	.LASF61
 4631 0820 01        		.byte	0x1
 4632 0821 5D        		.byte	0x5d
 4633 0822 0B08 0000 		.long	0x80b
 4634 0826 01        		.byte	0x1
 4635 0827 05        		.byte	0x5
 4636 0828 03        		.byte	0x3
 4637 0829 0000 0000 		.long	lcdScreen
GAS LISTING C:\DOKUME~1\Romahn\LOKALE~1\Temp/ccAI76Wf.s 			page 86


 4638 082d 2D        		.uleb128 0x2d
 4639 082e 0000 0000 		.long	.LASF62
 4640 0832 01        		.byte	0x1
 4641 0833 5F        		.byte	0x5f
 4642 0834 3F08 0000 		.long	0x83f
 4643 0838 01        		.byte	0x1
 4644 0839 05        		.byte	0x5
 4645 083a 03        		.byte	0x3
 4646 083b 0000 0000 		.long	systime
 4647 083f 2E        		.uleb128 0x2e
 4648 0840 5400 0000 		.long	0x54
 4649 0844 2D        		.uleb128 0x2d
 4650 0845 0000 0000 		.long	.LASF63
 4651 0849 01        		.byte	0x1
 4652 084a 60        		.byte	0x60
 4653 084b 3F08 0000 		.long	0x83f
 4654 084f 01        		.byte	0x1
 4655 0850 05        		.byte	0x5
 4656 0851 03        		.byte	0x3
 4657 0852 0000 0000 		.long	lastgpspkt
 4658 0856 2F        		.uleb128 0x2f
 4659 0857 6B65 7900 		.string	"key"
 4660 085b 01        		.byte	0x1
 4661 085c 61        		.byte	0x61
 4662 085d 6808 0000 		.long	0x868
 4663 0861 01        		.byte	0x1
 4664 0862 05        		.byte	0x5
 4665 0863 03        		.byte	0x3
 4666 0864 0000 0000 		.long	key
 4667 0868 2E        		.uleb128 0x2e
 4668 0869 A200 0000 		.long	0xa2
 4669 086d 2D        		.uleb128 0x2d
 4670 086e 0000 0000 		.long	.LASF64
 4671 0872 01        		.byte	0x1
 4672 0873 63        		.byte	0x63
 4673 0874 0B08 0000 		.long	0x80b
 4674 0878 01        		.byte	0x1
 4675 0879 05        		.byte	0x5
 4676 087a 03        		.byte	0x3
 4677 087b 0000 0000 		.long	gpstime
 4678 087f 2D        		.uleb128 0x2d
 4679 0880 0000 0000 		.long	.LASF65
 4680 0884 01        		.byte	0x1
 4681 0885 65        		.byte	0x65
 4682 0886 9108 0000 		.long	0x891
 4683 088a 01        		.byte	0x1
 4684 088b 05        		.byte	0x5
 4685 088c 03        		.byte	0x3
 4686 088d 0000 0000 		.long	gpshealth
 4687 0891 20        		.uleb128 0x20
 4688 0892 02        		.byte	0x2
 4689 0893 9708 0000 		.long	0x897
 4690 0897 2C        		.uleb128 0x2c
 4691 0898 9400 0000 		.long	0x94
 4692 089c 2D        		.uleb128 0x2d
 4693 089d 0000 0000 		.long	.LASF66
 4694 08a1 01        		.byte	0x1
GAS LISTING C:\DOKUME~1\Romahn\LOKALE~1\Temp/ccAI76Wf.s 			page 87


 4695 08a2 66        		.byte	0x66
 4696 08a3 5B00 0000 		.long	0x5b
 4697 08a7 01        		.byte	0x1
 4698 08a8 05        		.byte	0x5
 4699 08a9 03        		.byte	0x3
 4700 08aa 0000 0000 		.long	minorwert
 4701 08ae 2D        		.uleb128 0x2d
 4702 08af 0000 0000 		.long	.LASF67
 4703 08b3 01        		.byte	0x1
 4704 08b4 67        		.byte	0x67
 4705 08b5 3700 0000 		.long	0x37
 4706 08b9 01        		.byte	0x1
 4707 08ba 05        		.byte	0x5
 4708 08bb 03        		.byte	0x3
 4709 08bc 0000 0000 		.long	minorbit
 4710 08c0 2D        		.uleb128 0x2d
 4711 08c1 0000 0000 		.long	.LASF68
 4712 08c5 01        		.byte	0x1
 4713 08c6 68        		.byte	0x68
 4714 08c7 3700 0000 		.long	0x37
 4715 08cb 01        		.byte	0x1
 4716 08cc 05        		.byte	0x5
 4717 08cd 03        		.byte	0x3
 4718 08ce 0000 0000 		.long	satcount
 4719 08d2 2D        		.uleb128 0x2d
 4720 08d3 0000 0000 		.long	.LASF69
 4721 08d7 01        		.byte	0x1
 4722 08d8 69        		.byte	0x69
 4723 08d9 E408 0000 		.long	0x8e4
 4724 08dd 01        		.byte	0x1
 4725 08de 05        		.byte	0x5
 4726 08df 03        		.byte	0x3
 4727 08e0 0000 0000 		.long	newsec
 4728 08e4 2E        		.uleb128 0x2e
 4729 08e5 3700 0000 		.long	0x37
 4730 08e9 2A        		.uleb128 0x2a
 4731 08ea 3700 0000 		.long	0x37
 4732 08ee F908 0000 		.long	0x8f9
 4733 08f2 2B        		.uleb128 0x2b
 4734 08f3 E407 0000 		.long	0x7e4
 4735 08f7 03        		.byte	0x3
 4736 08f8 00        		.byte	0x0
 4737 08f9 2D        		.uleb128 0x2d
 4738 08fa 0000 0000 		.long	.LASF70
 4739 08fe 01        		.byte	0x1
 4740 08ff 7A        		.byte	0x7a
 4741 0900 E908 0000 		.long	0x8e9
 4742 0904 01        		.byte	0x1
 4743 0905 05        		.byte	0x5
 4744 0906 03        		.byte	0x3
 4745 0907 0000 0000 		.long	tsipSATELLITE
 4746 090b 2A        		.uleb128 0x2a
 4747 090c 3700 0000 		.long	0x37
 4748 0910 1B09 0000 		.long	0x91b
 4749 0914 2B        		.uleb128 0x2b
 4750 0915 E407 0000 		.long	0x7e4
 4751 0919 0D        		.byte	0xd
GAS LISTING C:\DOKUME~1\Romahn\LOKALE~1\Temp/ccAI76Wf.s 			page 88


 4752 091a 00        		.byte	0x0
 4753 091b 2D        		.uleb128 0x2d
 4754 091c 0000 0000 		.long	.LASF71
 4755 0920 01        		.byte	0x1
 4756 0921 8C        		.byte	0x8c
 4757 0922 0B09 0000 		.long	0x90b
 4758 0926 01        		.byte	0x1
 4759 0927 05        		.byte	0x5
 4760 0928 03        		.byte	0x3
 4761 0929 0000 0000 		.long	tsipSTATUS
 4762 092d 2D        		.uleb128 0x2d
 4763 092e 0000 0000 		.long	.LASF72
 4764 0932 01        		.byte	0x1
 4765 0933 9C        		.byte	0x9c
 4766 0934 3F09 0000 		.long	0x93f
 4767 0938 01        		.byte	0x1
 4768 0939 05        		.byte	0x5
 4769 093a 03        		.byte	0x3
 4770 093b 0000 0000 		.long	disciplinmode0
 4771 093f 2C        		.uleb128 0x2c
 4772 0940 EC07 0000 		.long	0x7ec
 4773 0944 2D        		.uleb128 0x2d
 4774 0945 0000 0000 		.long	.LASF73
 4775 0949 01        		.byte	0x1
 4776 094a 9D        		.byte	0x9d
 4777 094b 5609 0000 		.long	0x956
 4778 094f 01        		.byte	0x1
 4779 0950 05        		.byte	0x5
 4780 0951 03        		.byte	0x3
 4781 0952 0000 0000 		.long	disciplinmode1
 4782 0956 2C        		.uleb128 0x2c
 4783 0957 EC07 0000 		.long	0x7ec
 4784 095b 2D        		.uleb128 0x2d
 4785 095c 0000 0000 		.long	.LASF74
 4786 0960 01        		.byte	0x1
 4787 0961 9E        		.byte	0x9e
 4788 0962 6D09 0000 		.long	0x96d
 4789 0966 01        		.byte	0x1
 4790 0967 05        		.byte	0x5
 4791 0968 03        		.byte	0x3
 4792 0969 0000 0000 		.long	disciplinmode2
 4793 096d 2C        		.uleb128 0x2c
 4794 096e EC07 0000 		.long	0x7ec
 4795 0972 2D        		.uleb128 0x2d
 4796 0973 0000 0000 		.long	.LASF75
 4797 0977 01        		.byte	0x1
 4798 0978 9F        		.byte	0x9f
 4799 0979 8409 0000 		.long	0x984
 4800 097d 01        		.byte	0x1
 4801 097e 05        		.byte	0x5
 4802 097f 03        		.byte	0x3
 4803 0980 0000 0000 		.long	disciplinmode3
 4804 0984 2C        		.uleb128 0x2c
 4805 0985 EC07 0000 		.long	0x7ec
 4806 0989 2D        		.uleb128 0x2d
 4807 098a 0000 0000 		.long	.LASF76
 4808 098e 01        		.byte	0x1
GAS LISTING C:\DOKUME~1\Romahn\LOKALE~1\Temp/ccAI76Wf.s 			page 89


 4809 098f A0        		.byte	0xa0
 4810 0990 9B09 0000 		.long	0x99b
 4811 0994 01        		.byte	0x1
 4812 0995 05        		.byte	0x5
 4813 0996 03        		.byte	0x3
 4814 0997 0000 0000 		.long	disciplinmode4
 4815 099b 2C        		.uleb128 0x2c
 4816 099c EC07 0000 		.long	0x7ec
 4817 09a0 2D        		.uleb128 0x2d
 4818 09a1 0000 0000 		.long	.LASF77
 4819 09a5 01        		.byte	0x1
 4820 09a6 A1        		.byte	0xa1
 4821 09a7 B209 0000 		.long	0x9b2
 4822 09ab 01        		.byte	0x1
 4823 09ac 05        		.byte	0x5
 4824 09ad 03        		.byte	0x3
 4825 09ae 0000 0000 		.long	disciplinmode5
 4826 09b2 2C        		.uleb128 0x2c
 4827 09b3 EC07 0000 		.long	0x7ec
 4828 09b7 2D        		.uleb128 0x2d
 4829 09b8 0000 0000 		.long	.LASF78
 4830 09bc 01        		.byte	0x1
 4831 09bd A2        		.byte	0xa2
 4832 09be C909 0000 		.long	0x9c9
 4833 09c2 01        		.byte	0x1
 4834 09c3 05        		.byte	0x5
 4835 09c4 03        		.byte	0x3
 4836 09c5 0000 0000 		.long	disciplinmode6
 4837 09c9 2C        		.uleb128 0x2c
 4838 09ca EC07 0000 		.long	0x7ec
 4839 09ce 2D        		.uleb128 0x2d
 4840 09cf 0000 0000 		.long	.LASF79
 4841 09d3 01        		.byte	0x1
 4842 09d4 A3        		.byte	0xa3
 4843 09d5 E009 0000 		.long	0x9e0
 4844 09d9 01        		.byte	0x1
 4845 09da 05        		.byte	0x5
 4846 09db 03        		.byte	0x3
 4847 09dc 0000 0000 		.long	disciplinmodeu
 4848 09e0 2C        		.uleb128 0x2c
 4849 09e1 EC07 0000 		.long	0x7ec
 4850 09e5 2D        		.uleb128 0x2d
 4851 09e6 0000 0000 		.long	.LASF80
 4852 09ea 01        		.byte	0x1
 4853 09eb A6        		.byte	0xa6
 4854 09ec F709 0000 		.long	0x9f7
 4855 09f0 01        		.byte	0x1
 4856 09f1 05        		.byte	0x5
 4857 09f2 03        		.byte	0x3
 4858 09f3 0000 0000 		.long	decodingstatus0
 4859 09f7 2C        		.uleb128 0x2c
 4860 09f8 EC07 0000 		.long	0x7ec
 4861 09fc 2D        		.uleb128 0x2d
 4862 09fd 0000 0000 		.long	.LASF81
 4863 0a01 01        		.byte	0x1
 4864 0a02 A7        		.byte	0xa7
 4865 0a03 0E0A 0000 		.long	0xa0e
GAS LISTING C:\DOKUME~1\Romahn\LOKALE~1\Temp/ccAI76Wf.s 			page 90


 4866 0a07 01        		.byte	0x1
 4867 0a08 05        		.byte	0x5
 4868 0a09 03        		.byte	0x3
 4869 0a0a 0000 0000 		.long	decodingstatus1
 4870 0a0e 2C        		.uleb128 0x2c
 4871 0a0f EC07 0000 		.long	0x7ec
 4872 0a13 2D        		.uleb128 0x2d
 4873 0a14 0000 0000 		.long	.LASF82
 4874 0a18 01        		.byte	0x1
 4875 0a19 A8        		.byte	0xa8
 4876 0a1a 250A 0000 		.long	0xa25
 4877 0a1e 01        		.byte	0x1
 4878 0a1f 05        		.byte	0x5
 4879 0a20 03        		.byte	0x3
 4880 0a21 0000 0000 		.long	decodingstatus2
 4881 0a25 2C        		.uleb128 0x2c
 4882 0a26 EC07 0000 		.long	0x7ec
 4883 0a2a 2D        		.uleb128 0x2d
 4884 0a2b 0000 0000 		.long	.LASF83
 4885 0a2f 01        		.byte	0x1
 4886 0a30 A9        		.byte	0xa9
 4887 0a31 3C0A 0000 		.long	0xa3c
 4888 0a35 01        		.byte	0x1
 4889 0a36 05        		.byte	0x5
 4890 0a37 03        		.byte	0x3
 4891 0a38 0000 0000 		.long	decodingstatus3
 4892 0a3c 2C        		.uleb128 0x2c
 4893 0a3d EC07 0000 		.long	0x7ec
 4894 0a41 2D        		.uleb128 0x2d
 4895 0a42 0000 0000 		.long	.LASF84
 4896 0a46 01        		.byte	0x1
 4897 0a47 AA        		.byte	0xaa
 4898 0a48 530A 0000 		.long	0xa53
 4899 0a4c 01        		.byte	0x1
 4900 0a4d 05        		.byte	0x5
 4901 0a4e 03        		.byte	0x3
 4902 0a4f 0000 0000 		.long	decodingstatus8
 4903 0a53 2C        		.uleb128 0x2c
 4904 0a54 EC07 0000 		.long	0x7ec
 4905 0a58 2D        		.uleb128 0x2d
 4906 0a59 0000 0000 		.long	.LASF85
 4907 0a5d 01        		.byte	0x1
 4908 0a5e AB        		.byte	0xab
 4909 0a5f 6A0A 0000 		.long	0xa6a
 4910 0a63 01        		.byte	0x1
 4911 0a64 05        		.byte	0x5
 4912 0a65 03        		.byte	0x3
 4913 0a66 0000 0000 		.long	decodingstatus9
 4914 0a6a 2C        		.uleb128 0x2c
 4915 0a6b EC07 0000 		.long	0x7ec
 4916 0a6f 2D        		.uleb128 0x2d
 4917 0a70 0000 0000 		.long	.LASF86
 4918 0a74 01        		.byte	0x1
 4919 0a75 AC        		.byte	0xac
 4920 0a76 810A 0000 		.long	0xa81
 4921 0a7a 01        		.byte	0x1
 4922 0a7b 05        		.byte	0x5
GAS LISTING C:\DOKUME~1\Romahn\LOKALE~1\Temp/ccAI76Wf.s 			page 91


 4923 0a7c 03        		.byte	0x3
 4924 0a7d 0000 0000 		.long	decodingstatus10
 4925 0a81 2C        		.uleb128 0x2c
 4926 0a82 EC07 0000 		.long	0x7ec
 4927 0a86 2D        		.uleb128 0x2d
 4928 0a87 0000 0000 		.long	.LASF87
 4929 0a8b 01        		.byte	0x1
 4930 0a8c AD        		.byte	0xad
 4931 0a8d 980A 0000 		.long	0xa98
 4932 0a91 01        		.byte	0x1
 4933 0a92 05        		.byte	0x5
 4934 0a93 03        		.byte	0x3
 4935 0a94 0000 0000 		.long	decodingstatus11
 4936 0a98 2C        		.uleb128 0x2c
 4937 0a99 EC07 0000 		.long	0x7ec
 4938 0a9d 2D        		.uleb128 0x2d
 4939 0a9e 0000 0000 		.long	.LASF88
 4940 0aa2 01        		.byte	0x1
 4941 0aa3 AE        		.byte	0xae
 4942 0aa4 AF0A 0000 		.long	0xaaf
 4943 0aa8 01        		.byte	0x1
 4944 0aa9 05        		.byte	0x5
 4945 0aaa 03        		.byte	0x3
 4946 0aab 0000 0000 		.long	decodingstatus12
 4947 0aaf 2C        		.uleb128 0x2c
 4948 0ab0 EC07 0000 		.long	0x7ec
 4949 0ab4 2D        		.uleb128 0x2d
 4950 0ab5 0000 0000 		.long	.LASF89
 4951 0ab9 01        		.byte	0x1
 4952 0aba AF        		.byte	0xaf
 4953 0abb C60A 0000 		.long	0xac6
 4954 0abf 01        		.byte	0x1
 4955 0ac0 05        		.byte	0x5
 4956 0ac1 03        		.byte	0x3
 4957 0ac2 0000 0000 		.long	decodingstatus16
 4958 0ac6 2C        		.uleb128 0x2c
 4959 0ac7 EC07 0000 		.long	0x7ec
 4960 0acb 2D        		.uleb128 0x2d
 4961 0acc 0000 0000 		.long	.LASF90
 4962 0ad0 01        		.byte	0x1
 4963 0ad1 B0        		.byte	0xb0
 4964 0ad2 DD0A 0000 		.long	0xadd
 4965 0ad6 01        		.byte	0x1
 4966 0ad7 05        		.byte	0x5
 4967 0ad8 03        		.byte	0x3
 4968 0ad9 0000 0000 		.long	decodingstatusu
 4969 0add 2C        		.uleb128 0x2c
 4970 0ade EC07 0000 		.long	0x7ec
 4971 0ae2 2D        		.uleb128 0x2d
 4972 0ae3 0000 0000 		.long	.LASF91
 4973 0ae7 01        		.byte	0x1
 4974 0ae8 B3        		.byte	0xb3
 4975 0ae9 F40A 0000 		.long	0xaf4
 4976 0aed 01        		.byte	0x1
 4977 0aee 05        		.byte	0x5
 4978 0aef 03        		.byte	0x3
 4979 0af0 0000 0000 		.long	decodingactivity0
GAS LISTING C:\DOKUME~1\Romahn\LOKALE~1\Temp/ccAI76Wf.s 			page 92


 4980 0af4 2C        		.uleb128 0x2c
 4981 0af5 EC07 0000 		.long	0x7ec
 4982 0af9 2D        		.uleb128 0x2d
 4983 0afa 0000 0000 		.long	.LASF92
 4984 0afe 01        		.byte	0x1
 4985 0aff B4        		.byte	0xb4
 4986 0b00 0B0B 0000 		.long	0xb0b
 4987 0b04 01        		.byte	0x1
 4988 0b05 05        		.byte	0x5
 4989 0b06 03        		.byte	0x3
 4990 0b07 0000 0000 		.long	decodingactivity1
 4991 0b0b 2C        		.uleb128 0x2c
 4992 0b0c EC07 0000 		.long	0x7ec
 4993 0b10 2D        		.uleb128 0x2d
 4994 0b11 0000 0000 		.long	.LASF93
 4995 0b15 01        		.byte	0x1
 4996 0b16 B5        		.byte	0xb5
 4997 0b17 220B 0000 		.long	0xb22
 4998 0b1b 01        		.byte	0x1
 4999 0b1c 05        		.byte	0x5
 5000 0b1d 03        		.byte	0x3
 5001 0b1e 0000 0000 		.long	decodingactivity2
 5002 0b22 2C        		.uleb128 0x2c
 5003 0b23 EC07 0000 		.long	0x7ec
 5004 0b27 2D        		.uleb128 0x2d
 5005 0b28 0000 0000 		.long	.LASF94
 5006 0b2c 01        		.byte	0x1
 5007 0b2d B6        		.byte	0xb6
 5008 0b2e 390B 0000 		.long	0xb39
 5009 0b32 01        		.byte	0x1
 5010 0b33 05        		.byte	0x5
 5011 0b34 03        		.byte	0x3
 5012 0b35 0000 0000 		.long	decodingactivity3
 5013 0b39 2C        		.uleb128 0x2c
 5014 0b3a EC07 0000 		.long	0x7ec
 5015 0b3e 2D        		.uleb128 0x2d
 5016 0b3f 0000 0000 		.long	.LASF95
 5017 0b43 01        		.byte	0x1
 5018 0b44 B7        		.byte	0xb7
 5019 0b45 500B 0000 		.long	0xb50
 5020 0b49 01        		.byte	0x1
 5021 0b4a 05        		.byte	0x5
 5022 0b4b 03        		.byte	0x3
 5023 0b4c 0000 0000 		.long	decodingactivity4
 5024 0b50 2C        		.uleb128 0x2c
 5025 0b51 EC07 0000 		.long	0x7ec
 5026 0b55 2D        		.uleb128 0x2d
 5027 0b56 0000 0000 		.long	.LASF96
 5028 0b5a 01        		.byte	0x1
 5029 0b5b B8        		.byte	0xb8
 5030 0b5c 670B 0000 		.long	0xb67
 5031 0b60 01        		.byte	0x1
 5032 0b61 05        		.byte	0x5
 5033 0b62 03        		.byte	0x3
 5034 0b63 0000 0000 		.long	decodingactivity5
 5035 0b67 2C        		.uleb128 0x2c
 5036 0b68 EC07 0000 		.long	0x7ec
GAS LISTING C:\DOKUME~1\Romahn\LOKALE~1\Temp/ccAI76Wf.s 			page 93


 5037 0b6c 2D        		.uleb128 0x2d
 5038 0b6d 0000 0000 		.long	.LASF97
 5039 0b71 01        		.byte	0x1
 5040 0b72 B9        		.byte	0xb9
 5041 0b73 7E0B 0000 		.long	0xb7e
 5042 0b77 01        		.byte	0x1
 5043 0b78 05        		.byte	0x5
 5044 0b79 03        		.byte	0x3
 5045 0b7a 0000 0000 		.long	decodingactivity6
 5046 0b7e 2C        		.uleb128 0x2c
 5047 0b7f EC07 0000 		.long	0x7ec
 5048 0b83 2D        		.uleb128 0x2d
 5049 0b84 0000 0000 		.long	.LASF98
 5050 0b88 01        		.byte	0x1
 5051 0b89 BA        		.byte	0xba
 5052 0b8a 950B 0000 		.long	0xb95
 5053 0b8e 01        		.byte	0x1
 5054 0b8f 05        		.byte	0x5
 5055 0b90 03        		.byte	0x3
 5056 0b91 0000 0000 		.long	decodingactivity7
 5057 0b95 2C        		.uleb128 0x2c
 5058 0b96 EC07 0000 		.long	0x7ec
 5059 0b9a 2D        		.uleb128 0x2d
 5060 0b9b 0000 0000 		.long	.LASF99
 5061 0b9f 01        		.byte	0x1
 5062 0ba0 BB        		.byte	0xbb
 5063 0ba1 AC0B 0000 		.long	0xbac
 5064 0ba5 01        		.byte	0x1
 5065 0ba6 05        		.byte	0x5
 5066 0ba7 03        		.byte	0x3
 5067 0ba8 0000 0000 		.long	decodingactivity8
 5068 0bac 2C        		.uleb128 0x2c
 5069 0bad EC07 0000 		.long	0x7ec
 5070 0bb1 2D        		.uleb128 0x2d
 5071 0bb2 0000 0000 		.long	.LASF100
 5072 0bb6 01        		.byte	0x1
 5073 0bb7 BC        		.byte	0xbc
 5074 0bb8 C30B 0000 		.long	0xbc3
 5075 0bbc 01        		.byte	0x1
 5076 0bbd 05        		.byte	0x5
 5077 0bbe 03        		.byte	0x3
 5078 0bbf 0000 0000 		.long	decodingactivity9
 5079 0bc3 2C        		.uleb128 0x2c
 5080 0bc4 EC07 0000 		.long	0x7ec
 5081 0bc8 2D        		.uleb128 0x2d
 5082 0bc9 0000 0000 		.long	.LASF101
 5083 0bcd 01        		.byte	0x1
 5084 0bce BD        		.byte	0xbd
 5085 0bcf DA0B 0000 		.long	0xbda
 5086 0bd3 01        		.byte	0x1
 5087 0bd4 05        		.byte	0x5
 5088 0bd5 03        		.byte	0x3
 5089 0bd6 0000 0000 		.long	decodingactivityu
 5090 0bda 2C        		.uleb128 0x2c
 5091 0bdb EC07 0000 		.long	0x7ec
 5092 0bdf 2D        		.uleb128 0x2d
 5093 0be0 0000 0000 		.long	.LASF102
GAS LISTING C:\DOKUME~1\Romahn\LOKALE~1\Temp/ccAI76Wf.s 			page 94


 5094 0be4 01        		.byte	0x1
 5095 0be5 C0        		.byte	0xc0
 5096 0be6 F10B 0000 		.long	0xbf1
 5097 0bea 01        		.byte	0x1
 5098 0beb 05        		.byte	0x5
 5099 0bec 03        		.byte	0x3
 5100 0bed 0000 0000 		.long	decodingmalarm0
 5101 0bf1 2C        		.uleb128 0x2c
 5102 0bf2 EC07 0000 		.long	0x7ec
 5103 0bf6 2D        		.uleb128 0x2d
 5104 0bf7 0000 0000 		.long	.LASF103
 5105 0bfb 01        		.byte	0x1
 5106 0bfc C1        		.byte	0xc1
 5107 0bfd 080C 0000 		.long	0xc08
 5108 0c01 01        		.byte	0x1
 5109 0c02 05        		.byte	0x5
 5110 0c03 03        		.byte	0x3
 5111 0c04 0000 0000 		.long	decodingmalarm1
 5112 0c08 2C        		.uleb128 0x2c
 5113 0c09 EC07 0000 		.long	0x7ec
 5114 0c0d 2D        		.uleb128 0x2d
 5115 0c0e 0000 0000 		.long	.LASF104
 5116 0c12 01        		.byte	0x1
 5117 0c13 C2        		.byte	0xc2
 5118 0c14 1F0C 0000 		.long	0xc1f
 5119 0c18 01        		.byte	0x1
 5120 0c19 05        		.byte	0x5
 5121 0c1a 03        		.byte	0x3
 5122 0c1b 0000 0000 		.long	decodingmalarm2
 5123 0c1f 2C        		.uleb128 0x2c
 5124 0c20 EC07 0000 		.long	0x7ec
 5125 0c24 2D        		.uleb128 0x2d
 5126 0c25 0000 0000 		.long	.LASF105
 5127 0c29 01        		.byte	0x1
 5128 0c2a C3        		.byte	0xc3
 5129 0c2b 360C 0000 		.long	0xc36
 5130 0c2f 01        		.byte	0x1
 5131 0c30 05        		.byte	0x5
 5132 0c31 03        		.byte	0x3
 5133 0c32 0000 0000 		.long	decodingmalarm3
 5134 0c36 2C        		.uleb128 0x2c
 5135 0c37 EC07 0000 		.long	0x7ec
 5136 0c3b 2D        		.uleb128 0x2d
 5137 0c3c 0000 0000 		.long	.LASF106
 5138 0c40 01        		.byte	0x1
 5139 0c41 C4        		.byte	0xc4
 5140 0c42 4D0C 0000 		.long	0xc4d
 5141 0c46 01        		.byte	0x1
 5142 0c47 05        		.byte	0x5
 5143 0c48 03        		.byte	0x3
 5144 0c49 0000 0000 		.long	decodingmalarm4
 5145 0c4d 2C        		.uleb128 0x2c
 5146 0c4e EC07 0000 		.long	0x7ec
 5147 0c52 2D        		.uleb128 0x2d
 5148 0c53 0000 0000 		.long	.LASF107
 5149 0c57 01        		.byte	0x1
 5150 0c58 C5        		.byte	0xc5
GAS LISTING C:\DOKUME~1\Romahn\LOKALE~1\Temp/ccAI76Wf.s 			page 95


 5151 0c59 640C 0000 		.long	0xc64
 5152 0c5d 01        		.byte	0x1
 5153 0c5e 05        		.byte	0x5
 5154 0c5f 03        		.byte	0x3
 5155 0c60 0000 0000 		.long	decodingmalarm5
 5156 0c64 2C        		.uleb128 0x2c
 5157 0c65 EC07 0000 		.long	0x7ec
 5158 0c69 2D        		.uleb128 0x2d
 5159 0c6a 0000 0000 		.long	.LASF108
 5160 0c6e 01        		.byte	0x1
 5161 0c6f C6        		.byte	0xc6
 5162 0c70 7B0C 0000 		.long	0xc7b
 5163 0c74 01        		.byte	0x1
 5164 0c75 05        		.byte	0x5
 5165 0c76 03        		.byte	0x3
 5166 0c77 0000 0000 		.long	decodingmalarm6
 5167 0c7b 2C        		.uleb128 0x2c
 5168 0c7c EC07 0000 		.long	0x7ec
 5169 0c80 2D        		.uleb128 0x2d
 5170 0c81 0000 0000 		.long	.LASF109
 5171 0c85 01        		.byte	0x1
 5172 0c86 C7        		.byte	0xc7
 5173 0c87 920C 0000 		.long	0xc92
 5174 0c8b 01        		.byte	0x1
 5175 0c8c 05        		.byte	0x5
 5176 0c8d 03        		.byte	0x3
 5177 0c8e 0000 0000 		.long	decodingmalarm7
 5178 0c92 2C        		.uleb128 0x2c
 5179 0c93 EC07 0000 		.long	0x7ec
 5180 0c97 2D        		.uleb128 0x2d
 5181 0c98 0000 0000 		.long	.LASF110
 5182 0c9c 01        		.byte	0x1
 5183 0c9d C8        		.byte	0xc8
 5184 0c9e A90C 0000 		.long	0xca9
 5185 0ca2 01        		.byte	0x1
 5186 0ca3 05        		.byte	0x5
 5187 0ca4 03        		.byte	0x3
 5188 0ca5 0000 0000 		.long	decodingmalarm8
 5189 0ca9 2C        		.uleb128 0x2c
 5190 0caa EC07 0000 		.long	0x7ec
 5191 0cae 2D        		.uleb128 0x2d
 5192 0caf 0000 0000 		.long	.LASF111
 5193 0cb3 01        		.byte	0x1
 5194 0cb4 C9        		.byte	0xc9
 5195 0cb5 C00C 0000 		.long	0xcc0
 5196 0cb9 01        		.byte	0x1
 5197 0cba 05        		.byte	0x5
 5198 0cbb 03        		.byte	0x3
 5199 0cbc 0000 0000 		.long	decodingmalarm9
 5200 0cc0 2C        		.uleb128 0x2c
 5201 0cc1 EC07 0000 		.long	0x7ec
 5202 0cc5 2D        		.uleb128 0x2d
 5203 0cc6 0000 0000 		.long	.LASF112
 5204 0cca 01        		.byte	0x1
 5205 0ccb CA        		.byte	0xca
 5206 0ccc D70C 0000 		.long	0xcd7
 5207 0cd0 01        		.byte	0x1
GAS LISTING C:\DOKUME~1\Romahn\LOKALE~1\Temp/ccAI76Wf.s 			page 96


 5208 0cd1 05        		.byte	0x5
 5209 0cd2 03        		.byte	0x3
 5210 0cd3 0000 0000 		.long	decodingmalarm10
 5211 0cd7 2C        		.uleb128 0x2c
 5212 0cd8 EC07 0000 		.long	0x7ec
 5213 0cdc 2D        		.uleb128 0x2d
 5214 0cdd 0000 0000 		.long	.LASF113
 5215 0ce1 01        		.byte	0x1
 5216 0ce2 CB        		.byte	0xcb
 5217 0ce3 EE0C 0000 		.long	0xcee
 5218 0ce7 01        		.byte	0x1
 5219 0ce8 05        		.byte	0x5
 5220 0ce9 03        		.byte	0x3
 5221 0cea 0000 0000 		.long	decodingmalarm11
 5222 0cee 2C        		.uleb128 0x2c
 5223 0cef EC07 0000 		.long	0x7ec
 5224 0cf3 2D        		.uleb128 0x2d
 5225 0cf4 0000 0000 		.long	.LASF114
 5226 0cf8 01        		.byte	0x1
 5227 0cf9 CC        		.byte	0xcc
 5228 0cfa 050D 0000 		.long	0xd05
 5229 0cfe 01        		.byte	0x1
 5230 0cff 05        		.byte	0x5
 5231 0d00 03        		.byte	0x3
 5232 0d01 0000 0000 		.long	decodingmalarm12
 5233 0d05 2C        		.uleb128 0x2c
 5234 0d06 EC07 0000 		.long	0x7ec
 5235 0d0a 2D        		.uleb128 0x2d
 5236 0d0b 0000 0000 		.long	.LASF115
 5237 0d0f 01        		.byte	0x1
 5238 0d10 CD        		.byte	0xcd
 5239 0d11 1C0D 0000 		.long	0xd1c
 5240 0d15 01        		.byte	0x1
 5241 0d16 05        		.byte	0x5
 5242 0d17 03        		.byte	0x3
 5243 0d18 0000 0000 		.long	decodingmalarmu
 5244 0d1c 2C        		.uleb128 0x2c
 5245 0d1d EC07 0000 		.long	0x7ec
 5246 0d21 2D        		.uleb128 0x2d
 5247 0d22 0000 0000 		.long	.LASF116
 5248 0d26 01        		.byte	0x1
 5249 0d27 D0        		.byte	0xd0
 5250 0d28 330D 0000 		.long	0xd33
 5251 0d2c 01        		.byte	0x1
 5252 0d2d 05        		.byte	0x5
 5253 0d2e 03        		.byte	0x3
 5254 0d2f 0000 0000 		.long	criticalalarm
 5255 0d33 2C        		.uleb128 0x2c
 5256 0d34 EC07 0000 		.long	0x7ec
 5257 0d38 2A        		.uleb128 0x2a
 5258 0d39 3700 0000 		.long	0x37
 5259 0d3d 480D 0000 		.long	0xd48
 5260 0d41 2B        		.uleb128 0x2b
 5261 0d42 E407 0000 		.long	0x7e4
 5262 0d46 12        		.byte	0x12
 5263 0d47 00        		.byte	0x0
 5264 0d48 30        		.uleb128 0x30
GAS LISTING C:\DOKUME~1\Romahn\LOKALE~1\Temp/ccAI76Wf.s 			page 97


 5265 0d49 0000 0000 		.long	.LASF117
 5266 0d4d 01        		.byte	0x1
 5267 0d4e 3E01      		.word	0x13e
 5268 0d50 380D 0000 		.long	0xd38
 5269 0d54 01        		.byte	0x1
 5270 0d55 05        		.byte	0x5
 5271 0d56 03        		.byte	0x3
 5272 0d57 0000 0000 		.long	tsipGPSTIME
 5273 0d5b 30        		.uleb128 0x30
 5274 0d5c 0000 0000 		.long	.LASF118
 5275 0d60 01        		.byte	0x1
 5276 0d61 5101      		.word	0x151
 5277 0d63 6E0D 0000 		.long	0xd6e
 5278 0d67 01        		.byte	0x1
 5279 0d68 05        		.byte	0x5
 5280 0d69 03        		.byte	0x3
 5281 0d6a 0000 0000 		.long	gps_time
 5282 0d6e 20        		.uleb128 0x20
 5283 0d6f 02        		.byte	0x2
 5284 0d70 5801 0000 		.long	0x158
 5285 0d74 31        		.uleb128 0x31
 5286 0d75 6473 7400 		.string	"dst"
 5287 0d79 01        		.byte	0x1
 5288 0d7a 9E01      		.word	0x19e
 5289 0d7c 6D00 0000 		.long	0x6d
 5290 0d80 01        		.byte	0x1
 5291 0d81 05        		.byte	0x5
 5292 0d82 03        		.byte	0x3
 5293 0d83 0000 0000 		.long	dst
 5294 0d87 31        		.uleb128 0x31
 5295 0d88 6D65 7A00 		.string	"mez"
 5296 0d8c 01        		.byte	0x1
 5297 0d8d 9F01      		.word	0x19f
 5298 0d8f 6D00 0000 		.long	0x6d
 5299 0d93 01        		.byte	0x1
 5300 0d94 05        		.byte	0x5
 5301 0d95 03        		.byte	0x3
 5302 0d96 0000 0000 		.long	mez
 5303 0d9a 2A        		.uleb128 0x2a
 5304 0d9b A200 0000 		.long	0xa2
 5305 0d9f AA0D 0000 		.long	0xdaa
 5306 0da3 2B        		.uleb128 0x2b
 5307 0da4 E407 0000 		.long	0x7e4
 5308 0da8 27        		.byte	0x27
 5309 0da9 00        		.byte	0x0
 5310 0daa 30        		.uleb128 0x30
 5311 0dab 0000 0000 		.long	.LASF119
 5312 0daf 01        		.byte	0x1
 5313 0db0 A001      		.word	0x1a0
 5314 0db2 BD0D 0000 		.long	0xdbd
 5315 0db6 01        		.byte	0x1
 5316 0db7 05        		.byte	0x5
 5317 0db8 03        		.byte	0x3
 5318 0db9 0000 0000 		.long	months
 5319 0dbd 2C        		.uleb128 0x2c
 5320 0dbe 9A0D 0000 		.long	0xd9a
 5321 0dc2 2A        		.uleb128 0x2a
GAS LISTING C:\DOKUME~1\Romahn\LOKALE~1\Temp/ccAI76Wf.s 			page 98


 5322 0dc3 3700 0000 		.long	0x37
 5323 0dc7 D20D 0000 		.long	0xdd2
 5324 0dcb 2B        		.uleb128 0x2b
 5325 0dcc E407 0000 		.long	0x7e4
 5326 0dd0 44        		.byte	0x44
 5327 0dd1 00        		.byte	0x0
 5328 0dd2 30        		.uleb128 0x30
 5329 0dd3 0000 0000 		.long	.LASF120
 5330 0dd7 01        		.byte	0x1
 5331 0dd8 7D02      		.word	0x27d
 5332 0dda C20D 0000 		.long	0xdc2
 5333 0dde 01        		.byte	0x1
 5334 0ddf 05        		.byte	0x5
 5335 0de0 03        		.byte	0x3
 5336 0de1 0000 0000 		.long	rxBuffer
 5337 0de5 00        		.byte	0x0
 5338               		.section	.debug_abbrev
 5339 0000 01        		.uleb128 0x1
 5340 0001 11        		.uleb128 0x11
 5341 0002 01        		.byte	0x1
 5342 0003 25        		.uleb128 0x25
 5343 0004 0E        		.uleb128 0xe
 5344 0005 13        		.uleb128 0x13
 5345 0006 0B        		.uleb128 0xb
 5346 0007 03        		.uleb128 0x3
 5347 0008 0E        		.uleb128 0xe
 5348 0009 1B        		.uleb128 0x1b
 5349 000a 0E        		.uleb128 0xe
 5350 000b 11        		.uleb128 0x11
 5351 000c 01        		.uleb128 0x1
 5352 000d 12        		.uleb128 0x12
 5353 000e 01        		.uleb128 0x1
 5354 000f 10        		.uleb128 0x10
 5355 0010 06        		.uleb128 0x6
 5356 0011 00        		.byte	0x0
 5357 0012 00        		.byte	0x0
 5358 0013 02        		.uleb128 0x2
 5359 0014 16        		.uleb128 0x16
 5360 0015 00        		.byte	0x0
 5361 0016 03        		.uleb128 0x3
 5362 0017 0E        		.uleb128 0xe
 5363 0018 3A        		.uleb128 0x3a
 5364 0019 0B        		.uleb128 0xb
 5365 001a 3B        		.uleb128 0x3b
 5366 001b 0B        		.uleb128 0xb
 5367 001c 49        		.uleb128 0x49
 5368 001d 13        		.uleb128 0x13
 5369 001e 00        		.byte	0x0
 5370 001f 00        		.byte	0x0
 5371 0020 03        		.uleb128 0x3
 5372 0021 24        		.uleb128 0x24
 5373 0022 00        		.byte	0x0
 5374 0023 0B        		.uleb128 0xb
 5375 0024 0B        		.uleb128 0xb
 5376 0025 3E        		.uleb128 0x3e
 5377 0026 0B        		.uleb128 0xb
 5378 0027 03        		.uleb128 0x3
GAS LISTING C:\DOKUME~1\Romahn\LOKALE~1\Temp/ccAI76Wf.s 			page 99


 5379 0028 0E        		.uleb128 0xe
 5380 0029 00        		.byte	0x0
 5381 002a 00        		.byte	0x0
 5382 002b 04        		.uleb128 0x4
 5383 002c 24        		.uleb128 0x24
 5384 002d 00        		.byte	0x0
 5385 002e 0B        		.uleb128 0xb
 5386 002f 0B        		.uleb128 0xb
 5387 0030 3E        		.uleb128 0x3e
 5388 0031 0B        		.uleb128 0xb
 5389 0032 03        		.uleb128 0x3
 5390 0033 08        		.uleb128 0x8
 5391 0034 00        		.byte	0x0
 5392 0035 00        		.byte	0x0
 5393 0036 05        		.uleb128 0x5
 5394 0037 24        		.uleb128 0x24
 5395 0038 00        		.byte	0x0
 5396 0039 0B        		.uleb128 0xb
 5397 003a 0B        		.uleb128 0xb
 5398 003b 3E        		.uleb128 0x3e
 5399 003c 0B        		.uleb128 0xb
 5400 003d 00        		.byte	0x0
 5401 003e 00        		.byte	0x0
 5402 003f 06        		.uleb128 0x6
 5403 0040 13        		.uleb128 0x13
 5404 0041 01        		.byte	0x1
 5405 0042 0B        		.uleb128 0xb
 5406 0043 0B        		.uleb128 0xb
 5407 0044 3A        		.uleb128 0x3a
 5408 0045 0B        		.uleb128 0xb
 5409 0046 3B        		.uleb128 0x3b
 5410 0047 05        		.uleb128 0x5
 5411 0048 01        		.uleb128 0x1
 5412 0049 13        		.uleb128 0x13
 5413 004a 00        		.byte	0x0
 5414 004b 00        		.byte	0x0
 5415 004c 07        		.uleb128 0x7
 5416 004d 0D        		.uleb128 0xd
 5417 004e 00        		.byte	0x0
 5418 004f 03        		.uleb128 0x3
 5419 0050 0E        		.uleb128 0xe
 5420 0051 3A        		.uleb128 0x3a
 5421 0052 0B        		.uleb128 0xb
 5422 0053 3B        		.uleb128 0x3b
 5423 0054 05        		.uleb128 0x5
 5424 0055 49        		.uleb128 0x49
 5425 0056 13        		.uleb128 0x13
 5426 0057 38        		.uleb128 0x38
 5427 0058 0A        		.uleb128 0xa
 5428 0059 00        		.byte	0x0
 5429 005a 00        		.byte	0x0
 5430 005b 08        		.uleb128 0x8
 5431 005c 0D        		.uleb128 0xd
 5432 005d 00        		.byte	0x0
 5433 005e 03        		.uleb128 0x3
 5434 005f 08        		.uleb128 0x8
 5435 0060 3A        		.uleb128 0x3a
GAS LISTING C:\DOKUME~1\Romahn\LOKALE~1\Temp/ccAI76Wf.s 			page 100


 5436 0061 0B        		.uleb128 0xb
 5437 0062 3B        		.uleb128 0x3b
 5438 0063 05        		.uleb128 0x5
 5439 0064 49        		.uleb128 0x49
 5440 0065 13        		.uleb128 0x13
 5441 0066 38        		.uleb128 0x38
 5442 0067 0A        		.uleb128 0xa
 5443 0068 00        		.byte	0x0
 5444 0069 00        		.byte	0x0
 5445 006a 09        		.uleb128 0x9
 5446 006b 16        		.uleb128 0x16
 5447 006c 00        		.byte	0x0
 5448 006d 03        		.uleb128 0x3
 5449 006e 0E        		.uleb128 0xe
 5450 006f 3A        		.uleb128 0x3a
 5451 0070 0B        		.uleb128 0xb
 5452 0071 3B        		.uleb128 0x3b
 5453 0072 05        		.uleb128 0x5
 5454 0073 49        		.uleb128 0x49
 5455 0074 13        		.uleb128 0x13
 5456 0075 00        		.byte	0x0
 5457 0076 00        		.byte	0x0
 5458 0077 0A        		.uleb128 0xa
 5459 0078 2E        		.uleb128 0x2e
 5460 0079 01        		.byte	0x1
 5461 007a 03        		.uleb128 0x3
 5462 007b 0E        		.uleb128 0xe
 5463 007c 3A        		.uleb128 0x3a
 5464 007d 0B        		.uleb128 0xb
 5465 007e 3B        		.uleb128 0x3b
 5466 007f 0B        		.uleb128 0xb
 5467 0080 27        		.uleb128 0x27
 5468 0081 0C        		.uleb128 0xc
 5469 0082 20        		.uleb128 0x20
 5470 0083 0B        		.uleb128 0xb
 5471 0084 01        		.uleb128 0x1
 5472 0085 13        		.uleb128 0x13
 5473 0086 00        		.byte	0x0
 5474 0087 00        		.byte	0x0
 5475 0088 0B        		.uleb128 0xb
 5476 0089 05        		.uleb128 0x5
 5477 008a 00        		.byte	0x0
 5478 008b 03        		.uleb128 0x3
 5479 008c 0E        		.uleb128 0xe
 5480 008d 3A        		.uleb128 0x3a
 5481 008e 0B        		.uleb128 0xb
 5482 008f 3B        		.uleb128 0x3b
 5483 0090 0B        		.uleb128 0xb
 5484 0091 49        		.uleb128 0x49
 5485 0092 13        		.uleb128 0x13
 5486 0093 00        		.byte	0x0
 5487 0094 00        		.byte	0x0
 5488 0095 0C        		.uleb128 0xc
 5489 0096 2E        		.uleb128 0x2e
 5490 0097 01        		.byte	0x1
 5491 0098 3F        		.uleb128 0x3f
 5492 0099 0C        		.uleb128 0xc
GAS LISTING C:\DOKUME~1\Romahn\LOKALE~1\Temp/ccAI76Wf.s 			page 101


 5493 009a 03        		.uleb128 0x3
 5494 009b 0E        		.uleb128 0xe
 5495 009c 3A        		.uleb128 0x3a
 5496 009d 0B        		.uleb128 0xb
 5497 009e 3B        		.uleb128 0x3b
 5498 009f 0B        		.uleb128 0xb
 5499 00a0 27        		.uleb128 0x27
 5500 00a1 0C        		.uleb128 0xc
 5501 00a2 49        		.uleb128 0x49
 5502 00a3 13        		.uleb128 0x13
 5503 00a4 20        		.uleb128 0x20
 5504 00a5 0B        		.uleb128 0xb
 5505 00a6 01        		.uleb128 0x1
 5506 00a7 13        		.uleb128 0x13
 5507 00a8 00        		.byte	0x0
 5508 00a9 00        		.byte	0x0
 5509 00aa 0D        		.uleb128 0xd
 5510 00ab 34        		.uleb128 0x34
 5511 00ac 00        		.byte	0x0
 5512 00ad 03        		.uleb128 0x3
 5513 00ae 08        		.uleb128 0x8
 5514 00af 3A        		.uleb128 0x3a
 5515 00b0 0B        		.uleb128 0xb
 5516 00b1 3B        		.uleb128 0x3b
 5517 00b2 0B        		.uleb128 0xb
 5518 00b3 49        		.uleb128 0x49
 5519 00b4 13        		.uleb128 0x13
 5520 00b5 00        		.byte	0x0
 5521 00b6 00        		.byte	0x0
 5522 00b7 0E        		.uleb128 0xe
 5523 00b8 2E        		.uleb128 0x2e
 5524 00b9 01        		.byte	0x1
 5525 00ba 3F        		.uleb128 0x3f
 5526 00bb 0C        		.uleb128 0xc
 5527 00bc 03        		.uleb128 0x3
 5528 00bd 0E        		.uleb128 0xe
 5529 00be 3A        		.uleb128 0x3a
 5530 00bf 0B        		.uleb128 0xb
 5531 00c0 3B        		.uleb128 0x3b
 5532 00c1 05        		.uleb128 0x5
 5533 00c2 27        		.uleb128 0x27
 5534 00c3 0C        		.uleb128 0xc
 5535 00c4 49        		.uleb128 0x49
 5536 00c5 13        		.uleb128 0x13
 5537 00c6 20        		.uleb128 0x20
 5538 00c7 0B        		.uleb128 0xb
 5539 00c8 01        		.uleb128 0x1
 5540 00c9 13        		.uleb128 0x13
 5541 00ca 00        		.byte	0x0
 5542 00cb 00        		.byte	0x0
 5543 00cc 0F        		.uleb128 0xf
 5544 00cd 05        		.uleb128 0x5
 5545 00ce 00        		.byte	0x0
 5546 00cf 03        		.uleb128 0x3
 5547 00d0 08        		.uleb128 0x8
 5548 00d1 3A        		.uleb128 0x3a
 5549 00d2 0B        		.uleb128 0xb
GAS LISTING C:\DOKUME~1\Romahn\LOKALE~1\Temp/ccAI76Wf.s 			page 102


 5550 00d3 3B        		.uleb128 0x3b
 5551 00d4 05        		.uleb128 0x5
 5552 00d5 49        		.uleb128 0x49
 5553 00d6 13        		.uleb128 0x13
 5554 00d7 00        		.byte	0x0
 5555 00d8 00        		.byte	0x0
 5556 00d9 10        		.uleb128 0x10
 5557 00da 34        		.uleb128 0x34
 5558 00db 00        		.byte	0x0
 5559 00dc 03        		.uleb128 0x3
 5560 00dd 0E        		.uleb128 0xe
 5561 00de 3A        		.uleb128 0x3a
 5562 00df 0B        		.uleb128 0xb
 5563 00e0 3B        		.uleb128 0x3b
 5564 00e1 0B        		.uleb128 0xb
 5565 00e2 49        		.uleb128 0x49
 5566 00e3 13        		.uleb128 0x13
 5567 00e4 00        		.byte	0x0
 5568 00e5 00        		.byte	0x0
 5569 00e6 11        		.uleb128 0x11
 5570 00e7 0B        		.uleb128 0xb
 5571 00e8 00        		.byte	0x0
 5572 00e9 00        		.byte	0x0
 5573 00ea 00        		.byte	0x0
 5574 00eb 12        		.uleb128 0x12
 5575 00ec 2E        		.uleb128 0x2e
 5576 00ed 01        		.byte	0x1
 5577 00ee 31        		.uleb128 0x31
 5578 00ef 13        		.uleb128 0x13
 5579 00f0 11        		.uleb128 0x11
 5580 00f1 01        		.uleb128 0x1
 5581 00f2 12        		.uleb128 0x12
 5582 00f3 01        		.uleb128 0x1
 5583 00f4 40        		.uleb128 0x40
 5584 00f5 0A        		.uleb128 0xa
 5585 00f6 01        		.uleb128 0x1
 5586 00f7 13        		.uleb128 0x13
 5587 00f8 00        		.byte	0x0
 5588 00f9 00        		.byte	0x0
 5589 00fa 13        		.uleb128 0x13
 5590 00fb 34        		.uleb128 0x34
 5591 00fc 00        		.byte	0x0
 5592 00fd 31        		.uleb128 0x31
 5593 00fe 13        		.uleb128 0x13
 5594 00ff 02        		.uleb128 0x2
 5595 0100 06        		.uleb128 0x6
 5596 0101 00        		.byte	0x0
 5597 0102 00        		.byte	0x0
 5598 0103 14        		.uleb128 0x14
 5599 0104 2E        		.uleb128 0x2e
 5600 0105 00        		.byte	0x0
 5601 0106 3F        		.uleb128 0x3f
 5602 0107 0C        		.uleb128 0xc
 5603 0108 03        		.uleb128 0x3
 5604 0109 0E        		.uleb128 0xe
 5605 010a 3A        		.uleb128 0x3a
 5606 010b 0B        		.uleb128 0xb
GAS LISTING C:\DOKUME~1\Romahn\LOKALE~1\Temp/ccAI76Wf.s 			page 103


 5607 010c 3B        		.uleb128 0x3b
 5608 010d 0B        		.uleb128 0xb
 5609 010e 27        		.uleb128 0x27
 5610 010f 0C        		.uleb128 0xc
 5611 0110 49        		.uleb128 0x49
 5612 0111 13        		.uleb128 0x13
 5613 0112 11        		.uleb128 0x11
 5614 0113 01        		.uleb128 0x1
 5615 0114 12        		.uleb128 0x12
 5616 0115 01        		.uleb128 0x1
 5617 0116 40        		.uleb128 0x40
 5618 0117 0A        		.uleb128 0xa
 5619 0118 00        		.byte	0x0
 5620 0119 00        		.byte	0x0
 5621 011a 15        		.uleb128 0x15
 5622 011b 2E        		.uleb128 0x2e
 5623 011c 01        		.byte	0x1
 5624 011d 3F        		.uleb128 0x3f
 5625 011e 0C        		.uleb128 0xc
 5626 011f 03        		.uleb128 0x3
 5627 0120 0E        		.uleb128 0xe
 5628 0121 3A        		.uleb128 0x3a
 5629 0122 0B        		.uleb128 0xb
 5630 0123 3B        		.uleb128 0x3b
 5631 0124 0B        		.uleb128 0xb
 5632 0125 27        		.uleb128 0x27
 5633 0126 0C        		.uleb128 0xc
 5634 0127 49        		.uleb128 0x49
 5635 0128 13        		.uleb128 0x13
 5636 0129 11        		.uleb128 0x11
 5637 012a 01        		.uleb128 0x1
 5638 012b 12        		.uleb128 0x12
 5639 012c 01        		.uleb128 0x1
 5640 012d 40        		.uleb128 0x40
 5641 012e 0A        		.uleb128 0xa
 5642 012f 01        		.uleb128 0x1
 5643 0130 13        		.uleb128 0x13
 5644 0131 00        		.byte	0x0
 5645 0132 00        		.byte	0x0
 5646 0133 16        		.uleb128 0x16
 5647 0134 1D        		.uleb128 0x1d
 5648 0135 01        		.byte	0x1
 5649 0136 31        		.uleb128 0x31
 5650 0137 13        		.uleb128 0x13
 5651 0138 11        		.uleb128 0x11
 5652 0139 01        		.uleb128 0x1
 5653 013a 12        		.uleb128 0x12
 5654 013b 01        		.uleb128 0x1
 5655 013c 58        		.uleb128 0x58
 5656 013d 0B        		.uleb128 0xb
 5657 013e 59        		.uleb128 0x59
 5658 013f 05        		.uleb128 0x5
 5659 0140 01        		.uleb128 0x1
 5660 0141 13        		.uleb128 0x13
 5661 0142 00        		.byte	0x0
 5662 0143 00        		.byte	0x0
 5663 0144 17        		.uleb128 0x17
GAS LISTING C:\DOKUME~1\Romahn\LOKALE~1\Temp/ccAI76Wf.s 			page 104


 5664 0145 0B        		.uleb128 0xb
 5665 0146 01        		.byte	0x1
 5666 0147 11        		.uleb128 0x11
 5667 0148 01        		.uleb128 0x1
 5668 0149 12        		.uleb128 0x12
 5669 014a 01        		.uleb128 0x1
 5670 014b 00        		.byte	0x0
 5671 014c 00        		.byte	0x0
 5672 014d 18        		.uleb128 0x18
 5673 014e 1D        		.uleb128 0x1d
 5674 014f 01        		.byte	0x1
 5675 0150 31        		.uleb128 0x31
 5676 0151 13        		.uleb128 0x13
 5677 0152 11        		.uleb128 0x11
 5678 0153 01        		.uleb128 0x1
 5679 0154 12        		.uleb128 0x12
 5680 0155 01        		.uleb128 0x1
 5681 0156 58        		.uleb128 0x58
 5682 0157 0B        		.uleb128 0xb
 5683 0158 59        		.uleb128 0x59
 5684 0159 05        		.uleb128 0x5
 5685 015a 00        		.byte	0x0
 5686 015b 00        		.byte	0x0
 5687 015c 19        		.uleb128 0x19
 5688 015d 05        		.uleb128 0x5
 5689 015e 00        		.byte	0x0
 5690 015f 31        		.uleb128 0x31
 5691 0160 13        		.uleb128 0x13
 5692 0161 02        		.uleb128 0x2
 5693 0162 06        		.uleb128 0x6
 5694 0163 00        		.byte	0x0
 5695 0164 00        		.byte	0x0
 5696 0165 1A        		.uleb128 0x1a
 5697 0166 2E        		.uleb128 0x2e
 5698 0167 01        		.byte	0x1
 5699 0168 3F        		.uleb128 0x3f
 5700 0169 0C        		.uleb128 0xc
 5701 016a 03        		.uleb128 0x3
 5702 016b 0E        		.uleb128 0xe
 5703 016c 3A        		.uleb128 0x3a
 5704 016d 0B        		.uleb128 0xb
 5705 016e 3B        		.uleb128 0x3b
 5706 016f 05        		.uleb128 0x5
 5707 0170 27        		.uleb128 0x27
 5708 0171 0C        		.uleb128 0xc
 5709 0172 49        		.uleb128 0x49
 5710 0173 13        		.uleb128 0x13
 5711 0174 11        		.uleb128 0x11
 5712 0175 01        		.uleb128 0x1
 5713 0176 12        		.uleb128 0x12
 5714 0177 01        		.uleb128 0x1
 5715 0178 40        		.uleb128 0x40
 5716 0179 0A        		.uleb128 0xa
 5717 017a 01        		.uleb128 0x1
 5718 017b 13        		.uleb128 0x13
 5719 017c 00        		.byte	0x0
 5720 017d 00        		.byte	0x0
GAS LISTING C:\DOKUME~1\Romahn\LOKALE~1\Temp/ccAI76Wf.s 			page 105


 5721 017e 1B        		.uleb128 0x1b
 5722 017f 05        		.uleb128 0x5
 5723 0180 00        		.byte	0x0
 5724 0181 03        		.uleb128 0x3
 5725 0182 0E        		.uleb128 0xe
 5726 0183 3A        		.uleb128 0x3a
 5727 0184 0B        		.uleb128 0xb
 5728 0185 3B        		.uleb128 0x3b
 5729 0186 05        		.uleb128 0x5
 5730 0187 49        		.uleb128 0x49
 5731 0188 13        		.uleb128 0x13
 5732 0189 02        		.uleb128 0x2
 5733 018a 06        		.uleb128 0x6
 5734 018b 00        		.byte	0x0
 5735 018c 00        		.byte	0x0
 5736 018d 1C        		.uleb128 0x1c
 5737 018e 05        		.uleb128 0x5
 5738 018f 00        		.byte	0x0
 5739 0190 03        		.uleb128 0x3
 5740 0191 08        		.uleb128 0x8
 5741 0192 3A        		.uleb128 0x3a
 5742 0193 0B        		.uleb128 0xb
 5743 0194 3B        		.uleb128 0x3b
 5744 0195 05        		.uleb128 0x5
 5745 0196 49        		.uleb128 0x49
 5746 0197 13        		.uleb128 0x13
 5747 0198 02        		.uleb128 0x2
 5748 0199 06        		.uleb128 0x6
 5749 019a 00        		.byte	0x0
 5750 019b 00        		.byte	0x0
 5751 019c 1D        		.uleb128 0x1d
 5752 019d 2E        		.uleb128 0x2e
 5753 019e 01        		.byte	0x1
 5754 019f 3F        		.uleb128 0x3f
 5755 01a0 0C        		.uleb128 0xc
 5756 01a1 03        		.uleb128 0x3
 5757 01a2 0E        		.uleb128 0xe
 5758 01a3 3A        		.uleb128 0x3a
 5759 01a4 0B        		.uleb128 0xb
 5760 01a5 3B        		.uleb128 0x3b
 5761 01a6 05        		.uleb128 0x5
 5762 01a7 27        		.uleb128 0x27
 5763 01a8 0C        		.uleb128 0xc
 5764 01a9 11        		.uleb128 0x11
 5765 01aa 01        		.uleb128 0x1
 5766 01ab 12        		.uleb128 0x12
 5767 01ac 01        		.uleb128 0x1
 5768 01ad 40        		.uleb128 0x40
 5769 01ae 0A        		.uleb128 0xa
 5770 01af 01        		.uleb128 0x1
 5771 01b0 13        		.uleb128 0x13
 5772 01b1 00        		.byte	0x0
 5773 01b2 00        		.byte	0x0
 5774 01b3 1E        		.uleb128 0x1e
 5775 01b4 34        		.uleb128 0x34
 5776 01b5 00        		.byte	0x0
 5777 01b6 03        		.uleb128 0x3
GAS LISTING C:\DOKUME~1\Romahn\LOKALE~1\Temp/ccAI76Wf.s 			page 106


 5778 01b7 08        		.uleb128 0x8
 5779 01b8 3A        		.uleb128 0x3a
 5780 01b9 0B        		.uleb128 0xb
 5781 01ba 3B        		.uleb128 0x3b
 5782 01bb 05        		.uleb128 0x5
 5783 01bc 49        		.uleb128 0x49
 5784 01bd 13        		.uleb128 0x13
 5785 01be 02        		.uleb128 0x2
 5786 01bf 06        		.uleb128 0x6
 5787 01c0 00        		.byte	0x0
 5788 01c1 00        		.byte	0x0
 5789 01c2 1F        		.uleb128 0x1f
 5790 01c3 34        		.uleb128 0x34
 5791 01c4 00        		.byte	0x0
 5792 01c5 03        		.uleb128 0x3
 5793 01c6 08        		.uleb128 0x8
 5794 01c7 3A        		.uleb128 0x3a
 5795 01c8 0B        		.uleb128 0xb
 5796 01c9 3B        		.uleb128 0x3b
 5797 01ca 05        		.uleb128 0x5
 5798 01cb 49        		.uleb128 0x49
 5799 01cc 13        		.uleb128 0x13
 5800 01cd 00        		.byte	0x0
 5801 01ce 00        		.byte	0x0
 5802 01cf 20        		.uleb128 0x20
 5803 01d0 0F        		.uleb128 0xf
 5804 01d1 00        		.byte	0x0
 5805 01d2 0B        		.uleb128 0xb
 5806 01d3 0B        		.uleb128 0xb
 5807 01d4 49        		.uleb128 0x49
 5808 01d5 13        		.uleb128 0x13
 5809 01d6 00        		.byte	0x0
 5810 01d7 00        		.byte	0x0
 5811 01d8 21        		.uleb128 0x21
 5812 01d9 34        		.uleb128 0x34
 5813 01da 00        		.byte	0x0
 5814 01db 03        		.uleb128 0x3
 5815 01dc 0E        		.uleb128 0xe
 5816 01dd 3A        		.uleb128 0x3a
 5817 01de 0B        		.uleb128 0xb
 5818 01df 3B        		.uleb128 0x3b
 5819 01e0 05        		.uleb128 0x5
 5820 01e1 49        		.uleb128 0x49
 5821 01e2 13        		.uleb128 0x13
 5822 01e3 00        		.byte	0x0
 5823 01e4 00        		.byte	0x0
 5824 01e5 22        		.uleb128 0x22
 5825 01e6 2E        		.uleb128 0x2e
 5826 01e7 01        		.byte	0x1
 5827 01e8 3F        		.uleb128 0x3f
 5828 01e9 0C        		.uleb128 0xc
 5829 01ea 03        		.uleb128 0x3
 5830 01eb 08        		.uleb128 0x8
 5831 01ec 3A        		.uleb128 0x3a
 5832 01ed 0B        		.uleb128 0xb
 5833 01ee 3B        		.uleb128 0x3b
 5834 01ef 05        		.uleb128 0x5
GAS LISTING C:\DOKUME~1\Romahn\LOKALE~1\Temp/ccAI76Wf.s 			page 107


 5835 01f0 27        		.uleb128 0x27
 5836 01f1 0C        		.uleb128 0xc
 5837 01f2 49        		.uleb128 0x49
 5838 01f3 13        		.uleb128 0x13
 5839 01f4 11        		.uleb128 0x11
 5840 01f5 01        		.uleb128 0x1
 5841 01f6 12        		.uleb128 0x12
 5842 01f7 01        		.uleb128 0x1
 5843 01f8 40        		.uleb128 0x40
 5844 01f9 0A        		.uleb128 0xa
 5845 01fa 01        		.uleb128 0x1
 5846 01fb 13        		.uleb128 0x13
 5847 01fc 00        		.byte	0x0
 5848 01fd 00        		.byte	0x0
 5849 01fe 23        		.uleb128 0x23
 5850 01ff 34        		.uleb128 0x34
 5851 0200 00        		.byte	0x0
 5852 0201 03        		.uleb128 0x3
 5853 0202 08        		.uleb128 0x8
 5854 0203 3A        		.uleb128 0x3a
 5855 0204 0B        		.uleb128 0xb
 5856 0205 3B        		.uleb128 0x3b
 5857 0206 05        		.uleb128 0x5
 5858 0207 49        		.uleb128 0x49
 5859 0208 13        		.uleb128 0x13
 5860 0209 02        		.uleb128 0x2
 5861 020a 0A        		.uleb128 0xa
 5862 020b 00        		.byte	0x0
 5863 020c 00        		.byte	0x0
 5864 020d 24        		.uleb128 0x24
 5865 020e 2E        		.uleb128 0x2e
 5866 020f 00        		.byte	0x0
 5867 0210 3F        		.uleb128 0x3f
 5868 0211 0C        		.uleb128 0xc
 5869 0212 03        		.uleb128 0x3
 5870 0213 0E        		.uleb128 0xe
 5871 0214 3A        		.uleb128 0x3a
 5872 0215 0B        		.uleb128 0xb
 5873 0216 3B        		.uleb128 0x3b
 5874 0217 05        		.uleb128 0x5
 5875 0218 27        		.uleb128 0x27
 5876 0219 0C        		.uleb128 0xc
 5877 021a 11        		.uleb128 0x11
 5878 021b 01        		.uleb128 0x1
 5879 021c 12        		.uleb128 0x12
 5880 021d 01        		.uleb128 0x1
 5881 021e 40        		.uleb128 0x40
 5882 021f 0A        		.uleb128 0xa
 5883 0220 00        		.byte	0x0
 5884 0221 00        		.byte	0x0
 5885 0222 25        		.uleb128 0x25
 5886 0223 34        		.uleb128 0x34
 5887 0224 00        		.byte	0x0
 5888 0225 03        		.uleb128 0x3
 5889 0226 0E        		.uleb128 0xe
 5890 0227 3A        		.uleb128 0x3a
 5891 0228 0B        		.uleb128 0xb
GAS LISTING C:\DOKUME~1\Romahn\LOKALE~1\Temp/ccAI76Wf.s 			page 108


 5892 0229 3B        		.uleb128 0x3b
 5893 022a 05        		.uleb128 0x5
 5894 022b 49        		.uleb128 0x49
 5895 022c 13        		.uleb128 0x13
 5896 022d 02        		.uleb128 0x2
 5897 022e 0A        		.uleb128 0xa
 5898 022f 00        		.byte	0x0
 5899 0230 00        		.byte	0x0
 5900 0231 26        		.uleb128 0x26
 5901 0232 34        		.uleb128 0x34
 5902 0233 00        		.byte	0x0
 5903 0234 03        		.uleb128 0x3
 5904 0235 0E        		.uleb128 0xe
 5905 0236 3A        		.uleb128 0x3a
 5906 0237 0B        		.uleb128 0xb
 5907 0238 3B        		.uleb128 0x3b
 5908 0239 05        		.uleb128 0x5
 5909 023a 49        		.uleb128 0x49
 5910 023b 13        		.uleb128 0x13
 5911 023c 02        		.uleb128 0x2
 5912 023d 06        		.uleb128 0x6
 5913 023e 00        		.byte	0x0
 5914 023f 00        		.byte	0x0
 5915 0240 27        		.uleb128 0x27
 5916 0241 05        		.uleb128 0x5
 5917 0242 00        		.byte	0x0
 5918 0243 31        		.uleb128 0x31
 5919 0244 13        		.uleb128 0x13
 5920 0245 00        		.byte	0x0
 5921 0246 00        		.byte	0x0
 5922 0247 28        		.uleb128 0x28
 5923 0248 34        		.uleb128 0x34
 5924 0249 00        		.byte	0x0
 5925 024a 31        		.uleb128 0x31
 5926 024b 13        		.uleb128 0x13
 5927 024c 00        		.byte	0x0
 5928 024d 00        		.byte	0x0
 5929 024e 29        		.uleb128 0x29
 5930 024f 1D        		.uleb128 0x1d
 5931 0250 01        		.byte	0x1
 5932 0251 31        		.uleb128 0x31
 5933 0252 13        		.uleb128 0x13
 5934 0253 11        		.uleb128 0x11
 5935 0254 01        		.uleb128 0x1
 5936 0255 12        		.uleb128 0x12
 5937 0256 01        		.uleb128 0x1
 5938 0257 58        		.uleb128 0x58
 5939 0258 0B        		.uleb128 0xb
 5940 0259 59        		.uleb128 0x59
 5941 025a 0B        		.uleb128 0xb
 5942 025b 00        		.byte	0x0
 5943 025c 00        		.byte	0x0
 5944 025d 2A        		.uleb128 0x2a
 5945 025e 01        		.uleb128 0x1
 5946 025f 01        		.byte	0x1
 5947 0260 49        		.uleb128 0x49
 5948 0261 13        		.uleb128 0x13
GAS LISTING C:\DOKUME~1\Romahn\LOKALE~1\Temp/ccAI76Wf.s 			page 109


 5949 0262 01        		.uleb128 0x1
 5950 0263 13        		.uleb128 0x13
 5951 0264 00        		.byte	0x0
 5952 0265 00        		.byte	0x0
 5953 0266 2B        		.uleb128 0x2b
 5954 0267 21        		.uleb128 0x21
 5955 0268 00        		.byte	0x0
 5956 0269 49        		.uleb128 0x49
 5957 026a 13        		.uleb128 0x13
 5958 026b 2F        		.uleb128 0x2f
 5959 026c 0B        		.uleb128 0xb
 5960 026d 00        		.byte	0x0
 5961 026e 00        		.byte	0x0
 5962 026f 2C        		.uleb128 0x2c
 5963 0270 26        		.uleb128 0x26
 5964 0271 00        		.byte	0x0
 5965 0272 49        		.uleb128 0x49
 5966 0273 13        		.uleb128 0x13
 5967 0274 00        		.byte	0x0
 5968 0275 00        		.byte	0x0
 5969 0276 2D        		.uleb128 0x2d
 5970 0277 34        		.uleb128 0x34
 5971 0278 00        		.byte	0x0
 5972 0279 03        		.uleb128 0x3
 5973 027a 0E        		.uleb128 0xe
 5974 027b 3A        		.uleb128 0x3a
 5975 027c 0B        		.uleb128 0xb
 5976 027d 3B        		.uleb128 0x3b
 5977 027e 0B        		.uleb128 0xb
 5978 027f 49        		.uleb128 0x49
 5979 0280 13        		.uleb128 0x13
 5980 0281 3F        		.uleb128 0x3f
 5981 0282 0C        		.uleb128 0xc
 5982 0283 02        		.uleb128 0x2
 5983 0284 0A        		.uleb128 0xa
 5984 0285 00        		.byte	0x0
 5985 0286 00        		.byte	0x0
 5986 0287 2E        		.uleb128 0x2e
 5987 0288 35        		.uleb128 0x35
 5988 0289 00        		.byte	0x0
 5989 028a 49        		.uleb128 0x49
 5990 028b 13        		.uleb128 0x13
 5991 028c 00        		.byte	0x0
 5992 028d 00        		.byte	0x0
 5993 028e 2F        		.uleb128 0x2f
 5994 028f 34        		.uleb128 0x34
 5995 0290 00        		.byte	0x0
 5996 0291 03        		.uleb128 0x3
 5997 0292 08        		.uleb128 0x8
 5998 0293 3A        		.uleb128 0x3a
 5999 0294 0B        		.uleb128 0xb
 6000 0295 3B        		.uleb128 0x3b
 6001 0296 0B        		.uleb128 0xb
 6002 0297 49        		.uleb128 0x49
 6003 0298 13        		.uleb128 0x13
 6004 0299 3F        		.uleb128 0x3f
 6005 029a 0C        		.uleb128 0xc
GAS LISTING C:\DOKUME~1\Romahn\LOKALE~1\Temp/ccAI76Wf.s 			page 110


 6006 029b 02        		.uleb128 0x2
 6007 029c 0A        		.uleb128 0xa
 6008 029d 00        		.byte	0x0
 6009 029e 00        		.byte	0x0
 6010 029f 30        		.uleb128 0x30
 6011 02a0 34        		.uleb128 0x34
 6012 02a1 00        		.byte	0x0
 6013 02a2 03        		.uleb128 0x3
 6014 02a3 0E        		.uleb128 0xe
 6015 02a4 3A        		.uleb128 0x3a
 6016 02a5 0B        		.uleb128 0xb
 6017 02a6 3B        		.uleb128 0x3b
 6018 02a7 05        		.uleb128 0x5
 6019 02a8 49        		.uleb128 0x49
 6020 02a9 13        		.uleb128 0x13
 6021 02aa 3F        		.uleb128 0x3f
 6022 02ab 0C        		.uleb128 0xc
 6023 02ac 02        		.uleb128 0x2
 6024 02ad 0A        		.uleb128 0xa
 6025 02ae 00        		.byte	0x0
 6026 02af 00        		.byte	0x0
 6027 02b0 31        		.uleb128 0x31
 6028 02b1 34        		.uleb128 0x34
 6029 02b2 00        		.byte	0x0
 6030 02b3 03        		.uleb128 0x3
 6031 02b4 08        		.uleb128 0x8
 6032 02b5 3A        		.uleb128 0x3a
 6033 02b6 0B        		.uleb128 0xb
 6034 02b7 3B        		.uleb128 0x3b
 6035 02b8 05        		.uleb128 0x5
 6036 02b9 49        		.uleb128 0x49
 6037 02ba 13        		.uleb128 0x13
 6038 02bb 3F        		.uleb128 0x3f
 6039 02bc 0C        		.uleb128 0xc
 6040 02bd 02        		.uleb128 0x2
 6041 02be 0A        		.uleb128 0xa
 6042 02bf 00        		.byte	0x0
 6043 02c0 00        		.byte	0x0
 6044 02c1 00        		.byte	0x0
 6045               		.section	.debug_pubnames,"",@progbits
 6046 0000 8605 0000 		.long	0x586
 6047 0004 0200      		.word	0x2
 6048 0006 0000 0000 		.long	.Ldebug_info0
 6049 000a E60D 0000 		.long	0xde6
 6050 000e 1102 0000 		.long	0x211
 6051 0012 7469 6D65 		.string	"time"
 6051      00
 6052 0017 2F02 0000 		.long	0x22f
 6053 001b 7473 6970 		.string	"tsipDecodeSATELLITE"
 6053      4465 636F 
 6053      6465 5341 
 6053      5445 4C4C 
 6053      4954 4500 
 6054 002f 4702 0000 		.long	0x247
 6055 0033 7473 6970 		.string	"tsipDecodeSTATUS"
 6055      4465 636F 
 6055      6465 5354 
GAS LISTING C:\DOKUME~1\Romahn\LOKALE~1\Temp/ccAI76Wf.s 			page 111


 6055      4154 5553 
 6055      00
 6056 0044 D802 0000 		.long	0x2d8
 6057 0048 7377 6170 		.string	"swap_uint16"
 6057      5F75 696E 
 6057      7431 3600 
 6058 0054 F602 0000 		.long	0x2f6
 6059 0058 7377 6170 		.string	"swap_uint32"
 6059      5F75 696E 
 6059      7433 3200 
 6060 0064 1403 0000 		.long	0x314
 6061 0068 4461 7465 		.string	"DateToMjd"
 6061      546F 4D6A 
 6061      6400 
 6062 0072 6203 0000 		.long	0x362
 6063 0076 4D6A 6454 		.string	"MjdToDate"
 6063      6F44 6174 
 6063      6500 
 6064 0080 F603 0000 		.long	0x3f6
 6065 0084 4770 7354 		.string	"GpsToMjd"
 6065      6F4D 6A64 
 6065      00
 6066 008d 5004 0000 		.long	0x450
 6067 0091 646F 7700 		.string	"dow"
 6068 0095 A804 0000 		.long	0x4a8
 6069 0099 6877 696E 		.string	"hwinit"
 6069      6974 00
 6070 00a0 BD04 0000 		.long	0x4bd
 6071 00a4 5F5F 7665 		.string	"__vector_7"
 6071      6374 6F72 
 6071      5F37 00
 6072 00af D204 0000 		.long	0x4d2
 6073 00b3 5F5F 7665 		.string	"__vector_6"
 6073      6374 6F72 
 6073      5F36 00
 6074 00be E704 0000 		.long	0x4e7
 6075 00c2 5F5F 7665 		.string	"__vector_1"
 6075      6374 6F72 
 6075      5F31 00
 6076 00cd FC04 0000 		.long	0x4fc
 6077 00d1 5F5F 7665 		.string	"__vector_10"
 6077      6374 6F72 
 6077      5F31 3000 
 6078 00dd 1105 0000 		.long	0x511
 6079 00e1 5F5F 7665 		.string	"__vector_9"
 6079      6374 6F72 
 6079      5F39 00
 6080 00ec 5D05 0000 		.long	0x55d
 6081 00f0 7473 6970 		.string	"tsipDecodeGPSTIME"
 6081      4465 636F 
 6081      6465 4750 
 6081      5354 494D 
 6081      4500 
 6082 0102 4F06 0000 		.long	0x64f
 6083 0106 6D61 696E 		.string	"main"
 6083      00
 6084 010b 1B08 0000 		.long	0x81b
GAS LISTING C:\DOKUME~1\Romahn\LOKALE~1\Temp/ccAI76Wf.s 			page 112


 6085 010f 6C63 6453 		.string	"lcdScreen"
 6085      6372 6565 
 6085      6E00 
 6086 0119 2D08 0000 		.long	0x82d
 6087 011d 7379 7374 		.string	"systime"
 6087      696D 6500 
 6088 0125 4408 0000 		.long	0x844
 6089 0129 6C61 7374 		.string	"lastgpspkt"
 6089      6770 7370 
 6089      6B74 00
 6090 0134 5608 0000 		.long	0x856
 6091 0138 6B65 7900 		.string	"key"
 6092 013c 6D08 0000 		.long	0x86d
 6093 0140 6770 7374 		.string	"gpstime"
 6093      696D 6500 
 6094 0148 7F08 0000 		.long	0x87f
 6095 014c 6770 7368 		.string	"gpshealth"
 6095      6561 6C74 
 6095      6800 
 6096 0156 9C08 0000 		.long	0x89c
 6097 015a 6D69 6E6F 		.string	"minorwert"
 6097      7277 6572 
 6097      7400 
 6098 0164 AE08 0000 		.long	0x8ae
 6099 0168 6D69 6E6F 		.string	"minorbit"
 6099      7262 6974 
 6099      00
 6100 0171 C008 0000 		.long	0x8c0
 6101 0175 7361 7463 		.string	"satcount"
 6101      6F75 6E74 
 6101      00
 6102 017e D208 0000 		.long	0x8d2
 6103 0182 6E65 7773 		.string	"newsec"
 6103      6563 00
 6104 0189 F908 0000 		.long	0x8f9
 6105 018d 7473 6970 		.string	"tsipSATELLITE"
 6105      5341 5445 
 6105      4C4C 4954 
 6105      4500 
 6106 019b 1B09 0000 		.long	0x91b
 6107 019f 7473 6970 		.string	"tsipSTATUS"
 6107      5354 4154 
 6107      5553 00
 6108 01aa 2D09 0000 		.long	0x92d
 6109 01ae 6469 7363 		.string	"disciplinmode0"
 6109      6970 6C69 
 6109      6E6D 6F64 
 6109      6530 00
 6110 01bd 4409 0000 		.long	0x944
 6111 01c1 6469 7363 		.string	"disciplinmode1"
 6111      6970 6C69 
 6111      6E6D 6F64 
 6111      6531 00
 6112 01d0 5B09 0000 		.long	0x95b
 6113 01d4 6469 7363 		.string	"disciplinmode2"
 6113      6970 6C69 
 6113      6E6D 6F64 
GAS LISTING C:\DOKUME~1\Romahn\LOKALE~1\Temp/ccAI76Wf.s 			page 113


 6113      6532 00
 6114 01e3 7209 0000 		.long	0x972
 6115 01e7 6469 7363 		.string	"disciplinmode3"
 6115      6970 6C69 
 6115      6E6D 6F64 
 6115      6533 00
 6116 01f6 8909 0000 		.long	0x989
 6117 01fa 6469 7363 		.string	"disciplinmode4"
 6117      6970 6C69 
 6117      6E6D 6F64 
 6117      6534 00
 6118 0209 A009 0000 		.long	0x9a0
 6119 020d 6469 7363 		.string	"disciplinmode5"
 6119      6970 6C69 
 6119      6E6D 6F64 
 6119      6535 00
 6120 021c B709 0000 		.long	0x9b7
 6121 0220 6469 7363 		.string	"disciplinmode6"
 6121      6970 6C69 
 6121      6E6D 6F64 
 6121      6536 00
 6122 022f CE09 0000 		.long	0x9ce
 6123 0233 6469 7363 		.string	"disciplinmodeu"
 6123      6970 6C69 
 6123      6E6D 6F64 
 6123      6575 00
 6124 0242 E509 0000 		.long	0x9e5
 6125 0246 6465 636F 		.string	"decodingstatus0"
 6125      6469 6E67 
 6125      7374 6174 
 6125      7573 3000 
 6126 0256 FC09 0000 		.long	0x9fc
 6127 025a 6465 636F 		.string	"decodingstatus1"
 6127      6469 6E67 
 6127      7374 6174 
 6127      7573 3100 
 6128 026a 130A 0000 		.long	0xa13
 6129 026e 6465 636F 		.string	"decodingstatus2"
 6129      6469 6E67 
 6129      7374 6174 
 6129      7573 3200 
 6130 027e 2A0A 0000 		.long	0xa2a
 6131 0282 6465 636F 		.string	"decodingstatus3"
 6131      6469 6E67 
 6131      7374 6174 
 6131      7573 3300 
 6132 0292 410A 0000 		.long	0xa41
 6133 0296 6465 636F 		.string	"decodingstatus8"
 6133      6469 6E67 
 6133      7374 6174 
 6133      7573 3800 
 6134 02a6 580A 0000 		.long	0xa58
 6135 02aa 6465 636F 		.string	"decodingstatus9"
 6135      6469 6E67 
 6135      7374 6174 
 6135      7573 3900 
 6136 02ba 6F0A 0000 		.long	0xa6f
GAS LISTING C:\DOKUME~1\Romahn\LOKALE~1\Temp/ccAI76Wf.s 			page 114


 6137 02be 6465 636F 		.string	"decodingstatus10"
 6137      6469 6E67 
 6137      7374 6174 
 6137      7573 3130 
 6137      00
 6138 02cf 860A 0000 		.long	0xa86
 6139 02d3 6465 636F 		.string	"decodingstatus11"
 6139      6469 6E67 
 6139      7374 6174 
 6139      7573 3131 
 6139      00
 6140 02e4 9D0A 0000 		.long	0xa9d
 6141 02e8 6465 636F 		.string	"decodingstatus12"
 6141      6469 6E67 
 6141      7374 6174 
 6141      7573 3132 
 6141      00
 6142 02f9 B40A 0000 		.long	0xab4
 6143 02fd 6465 636F 		.string	"decodingstatus16"
 6143      6469 6E67 
 6143      7374 6174 
 6143      7573 3136 
 6143      00
 6144 030e CB0A 0000 		.long	0xacb
 6145 0312 6465 636F 		.string	"decodingstatusu"
 6145      6469 6E67 
 6145      7374 6174 
 6145      7573 7500 
 6146 0322 E20A 0000 		.long	0xae2
 6147 0326 6465 636F 		.string	"decodingactivity0"
 6147      6469 6E67 
 6147      6163 7469 
 6147      7669 7479 
 6147      3000 
 6148 0338 F90A 0000 		.long	0xaf9
 6149 033c 6465 636F 		.string	"decodingactivity1"
 6149      6469 6E67 
 6149      6163 7469 
 6149      7669 7479 
 6149      3100 
 6150 034e 100B 0000 		.long	0xb10
 6151 0352 6465 636F 		.string	"decodingactivity2"
 6151      6469 6E67 
 6151      6163 7469 
 6151      7669 7479 
 6151      3200 
 6152 0364 270B 0000 		.long	0xb27
 6153 0368 6465 636F 		.string	"decodingactivity3"
 6153      6469 6E67 
 6153      6163 7469 
 6153      7669 7479 
 6153      3300 
 6154 037a 3E0B 0000 		.long	0xb3e
 6155 037e 6465 636F 		.string	"decodingactivity4"
 6155      6469 6E67 
 6155      6163 7469 
 6155      7669 7479 
GAS LISTING C:\DOKUME~1\Romahn\LOKALE~1\Temp/ccAI76Wf.s 			page 115


 6155      3400 
 6156 0390 550B 0000 		.long	0xb55
 6157 0394 6465 636F 		.string	"decodingactivity5"
 6157      6469 6E67 
 6157      6163 7469 
 6157      7669 7479 
 6157      3500 
 6158 03a6 6C0B 0000 		.long	0xb6c
 6159 03aa 6465 636F 		.string	"decodingactivity6"
 6159      6469 6E67 
 6159      6163 7469 
 6159      7669 7479 
 6159      3600 
 6160 03bc 830B 0000 		.long	0xb83
 6161 03c0 6465 636F 		.string	"decodingactivity7"
 6161      6469 6E67 
 6161      6163 7469 
 6161      7669 7479 
 6161      3700 
 6162 03d2 9A0B 0000 		.long	0xb9a
 6163 03d6 6465 636F 		.string	"decodingactivity8"
 6163      6469 6E67 
 6163      6163 7469 
 6163      7669 7479 
 6163      3800 
 6164 03e8 B10B 0000 		.long	0xbb1
 6165 03ec 6465 636F 		.string	"decodingactivity9"
 6165      6469 6E67 
 6165      6163 7469 
 6165      7669 7479 
 6165      3900 
 6166 03fe C80B 0000 		.long	0xbc8
 6167 0402 6465 636F 		.string	"decodingactivityu"
 6167      6469 6E67 
 6167      6163 7469 
 6167      7669 7479 
 6167      7500 
 6168 0414 DF0B 0000 		.long	0xbdf
 6169 0418 6465 636F 		.string	"decodingmalarm0"
 6169      6469 6E67 
 6169      6D61 6C61 
 6169      726D 3000 
 6170 0428 F60B 0000 		.long	0xbf6
 6171 042c 6465 636F 		.string	"decodingmalarm1"
 6171      6469 6E67 
 6171      6D61 6C61 
 6171      726D 3100 
 6172 043c 0D0C 0000 		.long	0xc0d
 6173 0440 6465 636F 		.string	"decodingmalarm2"
 6173      6469 6E67 
 6173      6D61 6C61 
 6173      726D 3200 
 6174 0450 240C 0000 		.long	0xc24
 6175 0454 6465 636F 		.string	"decodingmalarm3"
 6175      6469 6E67 
 6175      6D61 6C61 
 6175      726D 3300 
GAS LISTING C:\DOKUME~1\Romahn\LOKALE~1\Temp/ccAI76Wf.s 			page 116


 6176 0464 3B0C 0000 		.long	0xc3b
 6177 0468 6465 636F 		.string	"decodingmalarm4"
 6177      6469 6E67 
 6177      6D61 6C61 
 6177      726D 3400 
 6178 0478 520C 0000 		.long	0xc52
 6179 047c 6465 636F 		.string	"decodingmalarm5"
 6179      6469 6E67 
 6179      6D61 6C61 
 6179      726D 3500 
 6180 048c 690C 0000 		.long	0xc69
 6181 0490 6465 636F 		.string	"decodingmalarm6"
 6181      6469 6E67 
 6181      6D61 6C61 
 6181      726D 3600 
 6182 04a0 800C 0000 		.long	0xc80
 6183 04a4 6465 636F 		.string	"decodingmalarm7"
 6183      6469 6E67 
 6183      6D61 6C61 
 6183      726D 3700 
 6184 04b4 970C 0000 		.long	0xc97
 6185 04b8 6465 636F 		.string	"decodingmalarm8"
 6185      6469 6E67 
 6185      6D61 6C61 
 6185      726D 3800 
 6186 04c8 AE0C 0000 		.long	0xcae
 6187 04cc 6465 636F 		.string	"decodingmalarm9"
 6187      6469 6E67 
 6187      6D61 6C61 
 6187      726D 3900 
 6188 04dc C50C 0000 		.long	0xcc5
 6189 04e0 6465 636F 		.string	"decodingmalarm10"
 6189      6469 6E67 
 6189      6D61 6C61 
 6189      726D 3130 
 6189      00
 6190 04f1 DC0C 0000 		.long	0xcdc
 6191 04f5 6465 636F 		.string	"decodingmalarm11"
 6191      6469 6E67 
 6191      6D61 6C61 
 6191      726D 3131 
 6191      00
 6192 0506 F30C 0000 		.long	0xcf3
 6193 050a 6465 636F 		.string	"decodingmalarm12"
 6193      6469 6E67 
 6193      6D61 6C61 
 6193      726D 3132 
 6193      00
 6194 051b 0A0D 0000 		.long	0xd0a
 6195 051f 6465 636F 		.string	"decodingmalarmu"
 6195      6469 6E67 
 6195      6D61 6C61 
 6195      726D 7500 
 6196 052f 210D 0000 		.long	0xd21
 6197 0533 6372 6974 		.string	"criticalalarm"
 6197      6963 616C 
 6197      616C 6172 
GAS LISTING C:\DOKUME~1\Romahn\LOKALE~1\Temp/ccAI76Wf.s 			page 117


 6197      6D00 
 6198 0541 480D 0000 		.long	0xd48
 6199 0545 7473 6970 		.string	"tsipGPSTIME"
 6199      4750 5354 
 6199      494D 4500 
 6200 0551 5B0D 0000 		.long	0xd5b
 6201 0555 6770 735F 		.string	"gps_time"
 6201      7469 6D65 
 6201      00
 6202 055e 740D 0000 		.long	0xd74
 6203 0562 6473 7400 		.string	"dst"
 6204 0566 870D 0000 		.long	0xd87
 6205 056a 6D65 7A00 		.string	"mez"
 6206 056e AA0D 0000 		.long	0xdaa
 6207 0572 6D6F 6E74 		.string	"months"
 6207      6873 00
 6208 0579 D20D 0000 		.long	0xdd2
 6209 057d 7278 4275 		.string	"rxBuffer"
 6209      6666 6572 
 6209      00
 6210 0586 0000 0000 		.long	0x0
 6211               		.section	.debug_aranges,"",@progbits
 6212 0000 1C00 0000 		.long	0x1c
 6213 0004 0200      		.word	0x2
 6214 0006 0000 0000 		.long	.Ldebug_info0
 6215 000a 04        		.byte	0x4
 6216 000b 00        		.byte	0x0
 6217 000c 0000      		.word	0x0
 6218 000e 0000      		.word	0x0
 6219 0010 0000 0000 		.long	.Ltext0
 6220 0014 720E 0000 		.long	.Letext0-.Ltext0
 6221 0018 0000 0000 		.long	0x0
 6222 001c 0000 0000 		.long	0x0
 6223               		.section	.debug_line
 6224 0000 BD08 0000 		.long	.LELT0-.LSLT0
 6225               	.LSLT0:
 6226 0004 0200      		.word	0x2
 6227 0006 F700 0000 		.long	.LELTP0-.LASLTP0
 6228               	.LASLTP0:
 6229 000a 01        		.byte	0x1
 6230 000b 01        		.byte	0x1
 6231 000c F6        		.byte	0xf6
 6232 000d F5        		.byte	0xf5
 6233 000e 0A        		.byte	0xa
 6234 000f 00        		.byte	0x0
 6235 0010 01        		.byte	0x1
 6236 0011 01        		.byte	0x1
 6237 0012 01        		.byte	0x1
 6238 0013 01        		.byte	0x1
 6239 0014 00        		.byte	0x0
 6240 0015 00        		.byte	0x0
 6241 0016 00        		.byte	0x0
 6242 0017 01        		.byte	0x1
 6243 0018 643A 2F61 		.ascii	"d:/avr/winavr20100110/lib/gcc/../../avr/include"
 6243      7672 2F77 
 6243      696E 6176 
 6243      7232 3031 
GAS LISTING C:\DOKUME~1\Romahn\LOKALE~1\Temp/ccAI76Wf.s 			page 118


 6243      3030 3131 
 6244 0047 00        		.byte	0
 6245 0048 643A 2F61 		.ascii	"d:/avr/winavr20100110/lib/gcc/../../avr/include/avr"
 6245      7672 2F77 
 6245      696E 6176 
 6245      7232 3031 
 6245      3030 3131 
 6246 007b 00        		.byte	0
 6247 007c 643A 2F61 		.ascii	"d:/avr/winavr20100110/lib/gcc/../../avr/include/util"
 6247      7672 2F77 
 6247      696E 6176 
 6247      7232 3031 
 6247      3030 3131 
 6248 00b0 00        		.byte	0
 6249 00b1 00        		.byte	0x0
 6250 00b2 6D61 696E 		.string	"main.c"
 6250      2E63 00
 6251 00b9 00        		.uleb128 0x0
 6252 00ba 00        		.uleb128 0x0
 6253 00bb 00        		.uleb128 0x0
 6254 00bc 7574 696C 		.string	"util/delay_basic.h"
 6254      2F64 656C 
 6254      6179 5F62 
 6254      6173 6963 
 6254      2E68 00
 6255 00cf 01        		.uleb128 0x1
 6256 00d0 00        		.uleb128 0x0
 6257 00d1 00        		.uleb128 0x0
 6258 00d2 7574 696C 		.string	"util/delay.h"
 6258      2F64 656C 
 6258      6179 2E68 
 6258      00
 6259 00df 01        		.uleb128 0x1
 6260 00e0 00        		.uleb128 0x0
 6261 00e1 00        		.uleb128 0x0
 6262 00e2 7374 6469 		.string	"stdint.h"
 6262      6E74 2E68 
 6262      00
 6263 00eb 01        		.uleb128 0x1
 6264 00ec 00        		.uleb128 0x0
 6265 00ed 00        		.uleb128 0x0
 6266 00ee 6176 722F 		.string	"avr/pgmspace.h"
 6266      7067 6D73 
 6266      7061 6365 
 6266      2E68 00
 6267 00fd 01        		.uleb128 0x1
 6268 00fe 00        		.uleb128 0x0
 6269 00ff 00        		.uleb128 0x0
 6270 0100 00        		.byte	0x0
 6271               	.LELTP0:
 6272 0101 00        		.byte	0x0
 6273 0102 05        		.uleb128 0x5
 6274 0103 02        		.byte	0x2
 6275 0104 0000 0000 		.long	.LM1
 6276 0108 7F        		.byte	0x7f
 6277 0109 00        		.byte	0x0
 6278 010a 05        		.uleb128 0x5
GAS LISTING C:\DOKUME~1\Romahn\LOKALE~1\Temp/ccAI76Wf.s 			page 119


 6279 010b 02        		.byte	0x2
 6280 010c 0000 0000 		.long	.LM2
 6281 0110 15        		.byte	0x15
 6282 0111 00        		.byte	0x0
 6283 0112 05        		.uleb128 0x5
 6284 0113 02        		.byte	0x2
 6285 0114 0000 0000 		.long	.LM3
 6286 0118 15        		.byte	0x15
 6287 0119 00        		.byte	0x0
 6288 011a 05        		.uleb128 0x5
 6289 011b 02        		.byte	0x2
 6290 011c 0000 0000 		.long	.LM4
 6291 0120 15        		.byte	0x15
 6292 0121 00        		.byte	0x0
 6293 0122 05        		.uleb128 0x5
 6294 0123 02        		.byte	0x2
 6295 0124 0000 0000 		.long	.LM5
 6296 0128 16        		.byte	0x16
 6297 0129 00        		.byte	0x0
 6298 012a 05        		.uleb128 0x5
 6299 012b 02        		.byte	0x2
 6300 012c 0000 0000 		.long	.LM6
 6301 0130 20        		.byte	0x20
 6302 0131 00        		.byte	0x0
 6303 0132 05        		.uleb128 0x5
 6304 0133 02        		.byte	0x2
 6305 0134 0000 0000 		.long	.LM7
 6306 0138 15        		.byte	0x15
 6307 0139 00        		.byte	0x0
 6308 013a 05        		.uleb128 0x5
 6309 013b 02        		.byte	0x2
 6310 013c 0000 0000 		.long	.LM8
 6311 0140 17        		.byte	0x17
 6312 0141 00        		.byte	0x0
 6313 0142 05        		.uleb128 0x5
 6314 0143 02        		.byte	0x2
 6315 0144 0000 0000 		.long	.LM9
 6316 0148 16        		.byte	0x16
 6317 0149 00        		.byte	0x0
 6318 014a 05        		.uleb128 0x5
 6319 014b 02        		.byte	0x2
 6320 014c 0000 0000 		.long	.LM10
 6321 0150 16        		.byte	0x16
 6322 0151 00        		.byte	0x0
 6323 0152 05        		.uleb128 0x5
 6324 0153 02        		.byte	0x2
 6325 0154 0000 0000 		.long	.LM11
 6326 0158 62        		.byte	0x62
 6327 0159 00        		.byte	0x0
 6328 015a 05        		.uleb128 0x5
 6329 015b 02        		.byte	0x2
 6330 015c 0000 0000 		.long	.LM12
 6331 0160 15        		.byte	0x15
 6332 0161 00        		.byte	0x0
 6333 0162 05        		.uleb128 0x5
 6334 0163 02        		.byte	0x2
 6335 0164 0000 0000 		.long	.LM13
GAS LISTING C:\DOKUME~1\Romahn\LOKALE~1\Temp/ccAI76Wf.s 			page 120


 6336 0168 1B        		.byte	0x1b
 6337 0169 00        		.byte	0x0
 6338 016a 05        		.uleb128 0x5
 6339 016b 02        		.byte	0x2
 6340 016c 0000 0000 		.long	.LM14
 6341 0170 24        		.byte	0x24
 6342 0171 00        		.byte	0x0
 6343 0172 05        		.uleb128 0x5
 6344 0173 02        		.byte	0x2
 6345 0174 0000 0000 		.long	.LM15
 6346 0178 15        		.byte	0x15
 6347 0179 00        		.byte	0x0
 6348 017a 05        		.uleb128 0x5
 6349 017b 02        		.byte	0x2
 6350 017c 0000 0000 		.long	.LM16
 6351 0180 15        		.byte	0x15
 6352 0181 00        		.byte	0x0
 6353 0182 05        		.uleb128 0x5
 6354 0183 02        		.byte	0x2
 6355 0184 0000 0000 		.long	.LM17
 6356 0188 15        		.byte	0x15
 6357 0189 00        		.byte	0x0
 6358 018a 05        		.uleb128 0x5
 6359 018b 02        		.byte	0x2
 6360 018c 0000 0000 		.long	.LM18
 6361 0190 15        		.byte	0x15
 6362 0191 00        		.byte	0x0
 6363 0192 05        		.uleb128 0x5
 6364 0193 02        		.byte	0x2
 6365 0194 0000 0000 		.long	.LM19
 6366 0198 15        		.byte	0x15
 6367 0199 00        		.byte	0x0
 6368 019a 05        		.uleb128 0x5
 6369 019b 02        		.byte	0x2
 6370 019c 0000 0000 		.long	.LM20
 6371 01a0 15        		.byte	0x15
 6372 01a1 00        		.byte	0x0
 6373 01a2 05        		.uleb128 0x5
 6374 01a3 02        		.byte	0x2
 6375 01a4 0000 0000 		.long	.LM21
 6376 01a8 15        		.byte	0x15
 6377 01a9 00        		.byte	0x0
 6378 01aa 05        		.uleb128 0x5
 6379 01ab 02        		.byte	0x2
 6380 01ac 0000 0000 		.long	.LM22
 6381 01b0 15        		.byte	0x15
 6382 01b1 00        		.byte	0x0
 6383 01b2 05        		.uleb128 0x5
 6384 01b3 02        		.byte	0x2
 6385 01b4 0000 0000 		.long	.LM23
 6386 01b8 19        		.byte	0x19
 6387 01b9 00        		.byte	0x0
 6388 01ba 05        		.uleb128 0x5
 6389 01bb 02        		.byte	0x2
 6390 01bc 0000 0000 		.long	.LM24
 6391 01c0 15        		.byte	0x15
 6392 01c1 00        		.byte	0x0
GAS LISTING C:\DOKUME~1\Romahn\LOKALE~1\Temp/ccAI76Wf.s 			page 121


 6393 01c2 05        		.uleb128 0x5
 6394 01c3 02        		.byte	0x2
 6395 01c4 0000 0000 		.long	.LM25
 6396 01c8 15        		.byte	0x15
 6397 01c9 00        		.byte	0x0
 6398 01ca 05        		.uleb128 0x5
 6399 01cb 02        		.byte	0x2
 6400 01cc 0000 0000 		.long	.LM26
 6401 01d0 15        		.byte	0x15
 6402 01d1 00        		.byte	0x0
 6403 01d2 05        		.uleb128 0x5
 6404 01d3 02        		.byte	0x2
 6405 01d4 0000 0000 		.long	.LM27
 6406 01d8 15        		.byte	0x15
 6407 01d9 00        		.byte	0x0
 6408 01da 05        		.uleb128 0x5
 6409 01db 02        		.byte	0x2
 6410 01dc 0000 0000 		.long	.LM28
 6411 01e0 15        		.byte	0x15
 6412 01e1 00        		.byte	0x0
 6413 01e2 05        		.uleb128 0x5
 6414 01e3 02        		.byte	0x2
 6415 01e4 0000 0000 		.long	.LM29
 6416 01e8 15        		.byte	0x15
 6417 01e9 00        		.byte	0x0
 6418 01ea 05        		.uleb128 0x5
 6419 01eb 02        		.byte	0x2
 6420 01ec 0000 0000 		.long	.LM30
 6421 01f0 15        		.byte	0x15
 6422 01f1 00        		.byte	0x0
 6423 01f2 05        		.uleb128 0x5
 6424 01f3 02        		.byte	0x2
 6425 01f4 0000 0000 		.long	.LM31
 6426 01f8 15        		.byte	0x15
 6427 01f9 00        		.byte	0x0
 6428 01fa 05        		.uleb128 0x5
 6429 01fb 02        		.byte	0x2
 6430 01fc 0000 0000 		.long	.LM32
 6431 0200 15        		.byte	0x15
 6432 0201 00        		.byte	0x0
 6433 0202 05        		.uleb128 0x5
 6434 0203 02        		.byte	0x2
 6435 0204 0000 0000 		.long	.LM33
 6436 0208 15        		.byte	0x15
 6437 0209 00        		.byte	0x0
 6438 020a 05        		.uleb128 0x5
 6439 020b 02        		.byte	0x2
 6440 020c 0000 0000 		.long	.LM34
 6441 0210 15        		.byte	0x15
 6442 0211 00        		.byte	0x0
 6443 0212 05        		.uleb128 0x5
 6444 0213 02        		.byte	0x2
 6445 0214 0000 0000 		.long	.LM35
 6446 0218 03        		.byte	0x3
 6447 0219 EA7E      		.sleb128 -150
 6448 021b 01        		.byte	0x1
 6449 021c 00        		.byte	0x0
GAS LISTING C:\DOKUME~1\Romahn\LOKALE~1\Temp/ccAI76Wf.s 			page 122


 6450 021d 05        		.uleb128 0x5
 6451 021e 02        		.byte	0x2
 6452 021f 0000 0000 		.long	.LM36
 6453 0223 15        		.byte	0x15
 6454 0224 00        		.byte	0x0
 6455 0225 05        		.uleb128 0x5
 6456 0226 02        		.byte	0x2
 6457 0227 0000 0000 		.long	.LM37
 6458 022b 15        		.byte	0x15
 6459 022c 00        		.byte	0x0
 6460 022d 05        		.uleb128 0x5
 6461 022e 02        		.byte	0x2
 6462 022f 0000 0000 		.long	.LM38
 6463 0233 12        		.byte	0x12
 6464 0234 00        		.byte	0x0
 6465 0235 05        		.uleb128 0x5
 6466 0236 02        		.byte	0x2
 6467 0237 0000 0000 		.long	.LM39
 6468 023b 15        		.byte	0x15
 6469 023c 00        		.byte	0x0
 6470 023d 05        		.uleb128 0x5
 6471 023e 02        		.byte	0x2
 6472 023f 0000 0000 		.long	.LM40
 6473 0243 15        		.byte	0x15
 6474 0244 00        		.byte	0x0
 6475 0245 05        		.uleb128 0x5
 6476 0246 02        		.byte	0x2
 6477 0247 0000 0000 		.long	.LM41
 6478 024b AF        		.byte	0xaf
 6479 024c 00        		.byte	0x0
 6480 024d 05        		.uleb128 0x5
 6481 024e 02        		.byte	0x2
 6482 024f 0000 0000 		.long	.LM42
 6483 0253 16        		.byte	0x16
 6484 0254 00        		.byte	0x0
 6485 0255 05        		.uleb128 0x5
 6486 0256 02        		.byte	0x2
 6487 0257 0000 0000 		.long	.LM43
 6488 025b 15        		.byte	0x15
 6489 025c 00        		.byte	0x0
 6490 025d 05        		.uleb128 0x5
 6491 025e 02        		.byte	0x2
 6492 025f 0000 0000 		.long	.LM44
 6493 0263 15        		.byte	0x15
 6494 0264 00        		.byte	0x0
 6495 0265 05        		.uleb128 0x5
 6496 0266 02        		.byte	0x2
 6497 0267 0000 0000 		.long	.LM45
 6498 026b 15        		.byte	0x15
 6499 026c 00        		.byte	0x0
 6500 026d 05        		.uleb128 0x5
 6501 026e 02        		.byte	0x2
 6502 026f 0000 0000 		.long	.LM46
 6503 0273 15        		.byte	0x15
 6504 0274 00        		.byte	0x0
 6505 0275 05        		.uleb128 0x5
 6506 0276 02        		.byte	0x2
GAS LISTING C:\DOKUME~1\Romahn\LOKALE~1\Temp/ccAI76Wf.s 			page 123


 6507 0277 0000 0000 		.long	.LM47
 6508 027b 15        		.byte	0x15
 6509 027c 00        		.byte	0x0
 6510 027d 05        		.uleb128 0x5
 6511 027e 02        		.byte	0x2
 6512 027f 0000 0000 		.long	.LM48
 6513 0283 15        		.byte	0x15
 6514 0284 00        		.byte	0x0
 6515 0285 05        		.uleb128 0x5
 6516 0286 02        		.byte	0x2
 6517 0287 0000 0000 		.long	.LM49
 6518 028b 15        		.byte	0x15
 6519 028c 00        		.byte	0x0
 6520 028d 05        		.uleb128 0x5
 6521 028e 02        		.byte	0x2
 6522 028f 0000 0000 		.long	.LM50
 6523 0293 15        		.byte	0x15
 6524 0294 00        		.byte	0x0
 6525 0295 05        		.uleb128 0x5
 6526 0296 02        		.byte	0x2
 6527 0297 0000 0000 		.long	.LM51
 6528 029b 15        		.byte	0x15
 6529 029c 00        		.byte	0x0
 6530 029d 05        		.uleb128 0x5
 6531 029e 02        		.byte	0x2
 6532 029f 0000 0000 		.long	.LM52
 6533 02a3 15        		.byte	0x15
 6534 02a4 00        		.byte	0x0
 6535 02a5 05        		.uleb128 0x5
 6536 02a6 02        		.byte	0x2
 6537 02a7 0000 0000 		.long	.LM53
 6538 02ab 15        		.byte	0x15
 6539 02ac 00        		.byte	0x0
 6540 02ad 05        		.uleb128 0x5
 6541 02ae 02        		.byte	0x2
 6542 02af 0000 0000 		.long	.LM54
 6543 02b3 18        		.byte	0x18
 6544 02b4 00        		.byte	0x0
 6545 02b5 05        		.uleb128 0x5
 6546 02b6 02        		.byte	0x2
 6547 02b7 0000 0000 		.long	.LM55
 6548 02bb 15        		.byte	0x15
 6549 02bc 00        		.byte	0x0
 6550 02bd 05        		.uleb128 0x5
 6551 02be 02        		.byte	0x2
 6552 02bf 0000 0000 		.long	.LM56
 6553 02c3 03        		.byte	0x3
 6554 02c4 D17E      		.sleb128 -175
 6555 02c6 01        		.byte	0x1
 6556 02c7 00        		.byte	0x0
 6557 02c8 05        		.uleb128 0x5
 6558 02c9 02        		.byte	0x2
 6559 02ca 0000 0000 		.long	.LM57
 6560 02ce 15        		.byte	0x15
 6561 02cf 00        		.byte	0x0
 6562 02d0 05        		.uleb128 0x5
 6563 02d1 02        		.byte	0x2
GAS LISTING C:\DOKUME~1\Romahn\LOKALE~1\Temp/ccAI76Wf.s 			page 124


 6564 02d2 0000 0000 		.long	.LM58
 6565 02d6 15        		.byte	0x15
 6566 02d7 00        		.byte	0x0
 6567 02d8 05        		.uleb128 0x5
 6568 02d9 02        		.byte	0x2
 6569 02da 0000 0000 		.long	.LM59
 6570 02de C1        		.byte	0xc1
 6571 02df 00        		.byte	0x0
 6572 02e0 05        		.uleb128 0x5
 6573 02e1 02        		.byte	0x2
 6574 02e2 0000 0000 		.long	.LM60
 6575 02e6 16        		.byte	0x16
 6576 02e7 00        		.byte	0x0
 6577 02e8 05        		.uleb128 0x5
 6578 02e9 02        		.byte	0x2
 6579 02ea 0000 0000 		.long	.LM61
 6580 02ee 15        		.byte	0x15
 6581 02ef 00        		.byte	0x0
 6582 02f0 05        		.uleb128 0x5
 6583 02f1 02        		.byte	0x2
 6584 02f2 0000 0000 		.long	.LM62
 6585 02f6 13        		.byte	0x13
 6586 02f7 00        		.byte	0x0
 6587 02f8 05        		.uleb128 0x5
 6588 02f9 02        		.byte	0x2
 6589 02fa 0000 0000 		.long	.LM63
 6590 02fe 15        		.byte	0x15
 6591 02ff 00        		.byte	0x0
 6592 0300 05        		.uleb128 0x5
 6593 0301 02        		.byte	0x2
 6594 0302 0000 0000 		.long	.LM64
 6595 0306 15        		.byte	0x15
 6596 0307 00        		.byte	0x0
 6597 0308 05        		.uleb128 0x5
 6598 0309 02        		.byte	0x2
 6599 030a 0000 0000 		.long	.LM65
 6600 030e 15        		.byte	0x15
 6601 030f 00        		.byte	0x0
 6602 0310 05        		.uleb128 0x5
 6603 0311 02        		.byte	0x2
 6604 0312 0000 0000 		.long	.LM66
 6605 0316 15        		.byte	0x15
 6606 0317 00        		.byte	0x0
 6607 0318 05        		.uleb128 0x5
 6608 0319 02        		.byte	0x2
 6609 031a 0000 0000 		.long	.LM67
 6610 031e 15        		.byte	0x15
 6611 031f 00        		.byte	0x0
 6612 0320 05        		.uleb128 0x5
 6613 0321 02        		.byte	0x2
 6614 0322 0000 0000 		.long	.LM68
 6615 0326 15        		.byte	0x15
 6616 0327 00        		.byte	0x0
 6617 0328 05        		.uleb128 0x5
 6618 0329 02        		.byte	0x2
 6619 032a 0000 0000 		.long	.LM69
 6620 032e 15        		.byte	0x15
GAS LISTING C:\DOKUME~1\Romahn\LOKALE~1\Temp/ccAI76Wf.s 			page 125


 6621 032f 00        		.byte	0x0
 6622 0330 05        		.uleb128 0x5
 6623 0331 02        		.byte	0x2
 6624 0332 0000 0000 		.long	.LM70
 6625 0336 15        		.byte	0x15
 6626 0337 00        		.byte	0x0
 6627 0338 05        		.uleb128 0x5
 6628 0339 02        		.byte	0x2
 6629 033a 0000 0000 		.long	.LM71
 6630 033e 15        		.byte	0x15
 6631 033f 00        		.byte	0x0
 6632 0340 05        		.uleb128 0x5
 6633 0341 02        		.byte	0x2
 6634 0342 0000 0000 		.long	.LM72
 6635 0346 15        		.byte	0x15
 6636 0347 00        		.byte	0x0
 6637 0348 05        		.uleb128 0x5
 6638 0349 02        		.byte	0x2
 6639 034a 0000 0000 		.long	.LM73
 6640 034e 15        		.byte	0x15
 6641 034f 00        		.byte	0x0
 6642 0350 05        		.uleb128 0x5
 6643 0351 02        		.byte	0x2
 6644 0352 0000 0000 		.long	.LM74
 6645 0356 15        		.byte	0x15
 6646 0357 00        		.byte	0x0
 6647 0358 05        		.uleb128 0x5
 6648 0359 02        		.byte	0x2
 6649 035a 0000 0000 		.long	.LM75
 6650 035e 15        		.byte	0x15
 6651 035f 00        		.byte	0x0
 6652 0360 05        		.uleb128 0x5
 6653 0361 02        		.byte	0x2
 6654 0362 0000 0000 		.long	.LM76
 6655 0366 15        		.byte	0x15
 6656 0367 00        		.byte	0x0
 6657 0368 05        		.uleb128 0x5
 6658 0369 02        		.byte	0x2
 6659 036a 0000 0000 		.long	.LM77
 6660 036e 15        		.byte	0x15
 6661 036f 00        		.byte	0x0
 6662 0370 05        		.uleb128 0x5
 6663 0371 02        		.byte	0x2
 6664 0372 0000 0000 		.long	.LM78
 6665 0376 15        		.byte	0x15
 6666 0377 00        		.byte	0x0
 6667 0378 05        		.uleb128 0x5
 6668 0379 02        		.byte	0x2
 6669 037a 0000 0000 		.long	.LM79
 6670 037e 17        		.byte	0x17
 6671 037f 00        		.byte	0x0
 6672 0380 05        		.uleb128 0x5
 6673 0381 02        		.byte	0x2
 6674 0382 0000 0000 		.long	.LM80
 6675 0386 17        		.byte	0x17
 6676 0387 00        		.byte	0x0
 6677 0388 05        		.uleb128 0x5
GAS LISTING C:\DOKUME~1\Romahn\LOKALE~1\Temp/ccAI76Wf.s 			page 126


 6678 0389 02        		.byte	0x2
 6679 038a 0000 0000 		.long	.LM81
 6680 038e 15        		.byte	0x15
 6681 038f 00        		.byte	0x0
 6682 0390 05        		.uleb128 0x5
 6683 0391 02        		.byte	0x2
 6684 0392 0000 0000 		.long	.LM82
 6685 0396 16        		.byte	0x16
 6686 0397 00        		.byte	0x0
 6687 0398 05        		.uleb128 0x5
 6688 0399 02        		.byte	0x2
 6689 039a 0000 0000 		.long	.LM83
 6690 039e 32        		.byte	0x32
 6691 039f 00        		.byte	0x0
 6692 03a0 05        		.uleb128 0x5
 6693 03a1 02        		.byte	0x2
 6694 03a2 0000 0000 		.long	.LM84
 6695 03a6 16        		.byte	0x16
 6696 03a7 00        		.byte	0x0
 6697 03a8 05        		.uleb128 0x5
 6698 03a9 02        		.byte	0x2
 6699 03aa 0000 0000 		.long	.LM85
 6700 03ae 18        		.byte	0x18
 6701 03af 00        		.byte	0x0
 6702 03b0 05        		.uleb128 0x5
 6703 03b1 02        		.byte	0x2
 6704 03b2 0000 0000 		.long	.LM86
 6705 03b6 15        		.byte	0x15
 6706 03b7 00        		.byte	0x0
 6707 03b8 05        		.uleb128 0x5
 6708 03b9 02        		.byte	0x2
 6709 03ba 0000 0000 		.long	.LM87
 6710 03be 16        		.byte	0x16
 6711 03bf 00        		.byte	0x0
 6712 03c0 05        		.uleb128 0x5
 6713 03c1 02        		.byte	0x2
 6714 03c2 0000 0000 		.long	.LM88
 6715 03c6 21        		.byte	0x21
 6716 03c7 00        		.byte	0x0
 6717 03c8 05        		.uleb128 0x5
 6718 03c9 02        		.byte	0x2
 6719 03ca 0000 0000 		.long	.LM89
 6720 03ce 01        		.byte	0x1
 6721 03cf 00        		.byte	0x0
 6722 03d0 05        		.uleb128 0x5
 6723 03d1 02        		.byte	0x2
 6724 03d2 0000 0000 		.long	.LM90
 6725 03d6 1D        		.byte	0x1d
 6726 03d7 00        		.byte	0x0
 6727 03d8 05        		.uleb128 0x5
 6728 03d9 02        		.byte	0x2
 6729 03da 0000 0000 		.long	.LM91
 6730 03de 1A        		.byte	0x1a
 6731 03df 00        		.byte	0x0
 6732 03e0 05        		.uleb128 0x5
 6733 03e1 02        		.byte	0x2
 6734 03e2 0000 0000 		.long	.LM92
GAS LISTING C:\DOKUME~1\Romahn\LOKALE~1\Temp/ccAI76Wf.s 			page 127


 6735 03e6 17        		.byte	0x17
 6736 03e7 00        		.byte	0x0
 6737 03e8 05        		.uleb128 0x5
 6738 03e9 02        		.byte	0x2
 6739 03ea 0000 0000 		.long	.LM93
 6740 03ee 15        		.byte	0x15
 6741 03ef 00        		.byte	0x0
 6742 03f0 05        		.uleb128 0x5
 6743 03f1 02        		.byte	0x2
 6744 03f2 0000 0000 		.long	.LM94
 6745 03f6 15        		.byte	0x15
 6746 03f7 00        		.byte	0x0
 6747 03f8 05        		.uleb128 0x5
 6748 03f9 02        		.byte	0x2
 6749 03fa 0000 0000 		.long	.LM95
 6750 03fe 15        		.byte	0x15
 6751 03ff 00        		.byte	0x0
 6752 0400 05        		.uleb128 0x5
 6753 0401 02        		.byte	0x2
 6754 0402 0000 0000 		.long	.LM96
 6755 0406 15        		.byte	0x15
 6756 0407 00        		.byte	0x0
 6757 0408 05        		.uleb128 0x5
 6758 0409 02        		.byte	0x2
 6759 040a 0000 0000 		.long	.LM97
 6760 040e 15        		.byte	0x15
 6761 040f 00        		.byte	0x0
 6762 0410 05        		.uleb128 0x5
 6763 0411 02        		.byte	0x2
 6764 0412 0000 0000 		.long	.LM98
 6765 0416 15        		.byte	0x15
 6766 0417 00        		.byte	0x0
 6767 0418 05        		.uleb128 0x5
 6768 0419 02        		.byte	0x2
 6769 041a 0000 0000 		.long	.LM99
 6770 041e 15        		.byte	0x15
 6771 041f 00        		.byte	0x0
 6772 0420 05        		.uleb128 0x5
 6773 0421 02        		.byte	0x2
 6774 0422 0000 0000 		.long	.LM100
 6775 0426 15        		.byte	0x15
 6776 0427 00        		.byte	0x0
 6777 0428 05        		.uleb128 0x5
 6778 0429 02        		.byte	0x2
 6779 042a 0000 0000 		.long	.LM101
 6780 042e 15        		.byte	0x15
 6781 042f 00        		.byte	0x0
 6782 0430 05        		.uleb128 0x5
 6783 0431 02        		.byte	0x2
 6784 0432 0000 0000 		.long	.LM102
 6785 0436 15        		.byte	0x15
 6786 0437 00        		.byte	0x0
 6787 0438 05        		.uleb128 0x5
 6788 0439 02        		.byte	0x2
 6789 043a 0000 0000 		.long	.LM103
 6790 043e 19        		.byte	0x19
 6791 043f 00        		.byte	0x0
GAS LISTING C:\DOKUME~1\Romahn\LOKALE~1\Temp/ccAI76Wf.s 			page 128


 6792 0440 05        		.uleb128 0x5
 6793 0441 02        		.byte	0x2
 6794 0442 0000 0000 		.long	.LM104
 6795 0446 18        		.byte	0x18
 6796 0447 00        		.byte	0x0
 6797 0448 05        		.uleb128 0x5
 6798 0449 02        		.byte	0x2
 6799 044a 0000 0000 		.long	.LM105
 6800 044e 15        		.byte	0x15
 6801 044f 00        		.byte	0x0
 6802 0450 05        		.uleb128 0x5
 6803 0451 02        		.byte	0x2
 6804 0452 0000 0000 		.long	.LM106
 6805 0456 19        		.byte	0x19
 6806 0457 00        		.byte	0x0
 6807 0458 05        		.uleb128 0x5
 6808 0459 02        		.byte	0x2
 6809 045a 0000 0000 		.long	.LM107
 6810 045e 16        		.byte	0x16
 6811 045f 00        		.byte	0x0
 6812 0460 05        		.uleb128 0x5
 6813 0461 02        		.byte	0x2
 6814 0462 0000 0000 		.long	.LM108
 6815 0466 16        		.byte	0x16
 6816 0467 00        		.byte	0x0
 6817 0468 05        		.uleb128 0x5
 6818 0469 02        		.byte	0x2
 6819 046a 0000 0000 		.long	.LM109
 6820 046e 7E        		.byte	0x7e
 6821 046f 00        		.byte	0x0
 6822 0470 05        		.uleb128 0x5
 6823 0471 02        		.byte	0x2
 6824 0472 0000 0000 		.long	.LM110
 6825 0476 17        		.byte	0x17
 6826 0477 00        		.byte	0x0
 6827 0478 05        		.uleb128 0x5
 6828 0479 02        		.byte	0x2
 6829 047a 0000 0000 		.long	.LM111
 6830 047e 15        		.byte	0x15
 6831 047f 00        		.byte	0x0
 6832 0480 05        		.uleb128 0x5
 6833 0481 02        		.byte	0x2
 6834 0482 0000 0000 		.long	.LM112
 6835 0486 15        		.byte	0x15
 6836 0487 00        		.byte	0x0
 6837 0488 05        		.uleb128 0x5
 6838 0489 02        		.byte	0x2
 6839 048a 0000 0000 		.long	.LM113
 6840 048e 15        		.byte	0x15
 6841 048f 00        		.byte	0x0
 6842 0490 05        		.uleb128 0x5
 6843 0491 02        		.byte	0x2
 6844 0492 0000 0000 		.long	.LM114
 6845 0496 15        		.byte	0x15
 6846 0497 00        		.byte	0x0
 6847 0498 05        		.uleb128 0x5
 6848 0499 02        		.byte	0x2
GAS LISTING C:\DOKUME~1\Romahn\LOKALE~1\Temp/ccAI76Wf.s 			page 129


 6849 049a 0000 0000 		.long	.LM115
 6850 049e 15        		.byte	0x15
 6851 049f 00        		.byte	0x0
 6852 04a0 05        		.uleb128 0x5
 6853 04a1 02        		.byte	0x2
 6854 04a2 0000 0000 		.long	.LM116
 6855 04a6 15        		.byte	0x15
 6856 04a7 00        		.byte	0x0
 6857 04a8 05        		.uleb128 0x5
 6858 04a9 02        		.byte	0x2
 6859 04aa 0000 0000 		.long	.LM117
 6860 04ae 15        		.byte	0x15
 6861 04af 00        		.byte	0x0
 6862 04b0 05        		.uleb128 0x5
 6863 04b1 02        		.byte	0x2
 6864 04b2 0000 0000 		.long	.LM118
 6865 04b6 15        		.byte	0x15
 6866 04b7 00        		.byte	0x0
 6867 04b8 05        		.uleb128 0x5
 6868 04b9 02        		.byte	0x2
 6869 04ba 0000 0000 		.long	.LM119
 6870 04be 15        		.byte	0x15
 6871 04bf 00        		.byte	0x0
 6872 04c0 05        		.uleb128 0x5
 6873 04c1 02        		.byte	0x2
 6874 04c2 0000 0000 		.long	.LM120
 6875 04c6 5D        		.byte	0x5d
 6876 04c7 00        		.byte	0x0
 6877 04c8 05        		.uleb128 0x5
 6878 04c9 02        		.byte	0x2
 6879 04ca 0000 0000 		.long	.LM121
 6880 04ce 15        		.byte	0x15
 6881 04cf 00        		.byte	0x0
 6882 04d0 05        		.uleb128 0x5
 6883 04d1 02        		.byte	0x2
 6884 04d2 0000 0000 		.long	.LM122
 6885 04d6 23        		.byte	0x23
 6886 04d7 00        		.byte	0x0
 6887 04d8 05        		.uleb128 0x5
 6888 04d9 02        		.byte	0x2
 6889 04da 0000 0000 		.long	.LM123
 6890 04de 15        		.byte	0x15
 6891 04df 00        		.byte	0x0
 6892 04e0 05        		.uleb128 0x5
 6893 04e1 02        		.byte	0x2
 6894 04e2 0000 0000 		.long	.LM124
 6895 04e6 1A        		.byte	0x1a
 6896 04e7 00        		.byte	0x0
 6897 04e8 05        		.uleb128 0x5
 6898 04e9 02        		.byte	0x2
 6899 04ea 0000 0000 		.long	.LM125
 6900 04ee 15        		.byte	0x15
 6901 04ef 00        		.byte	0x0
 6902 04f0 05        		.uleb128 0x5
 6903 04f1 02        		.byte	0x2
 6904 04f2 0000 0000 		.long	.LM126
 6905 04f6 16        		.byte	0x16
GAS LISTING C:\DOKUME~1\Romahn\LOKALE~1\Temp/ccAI76Wf.s 			page 130


 6906 04f7 00        		.byte	0x0
 6907 04f8 05        		.uleb128 0x5
 6908 04f9 02        		.byte	0x2
 6909 04fa 0000 0000 		.long	.LM127
 6910 04fe 15        		.byte	0x15
 6911 04ff 00        		.byte	0x0
 6912 0500 05        		.uleb128 0x5
 6913 0501 02        		.byte	0x2
 6914 0502 0000 0000 		.long	.LM128
 6915 0506 15        		.byte	0x15
 6916 0507 00        		.byte	0x0
 6917 0508 05        		.uleb128 0x5
 6918 0509 02        		.byte	0x2
 6919 050a 0000 0000 		.long	.LM129
 6920 050e 18        		.byte	0x18
 6921 050f 00        		.byte	0x0
 6922 0510 05        		.uleb128 0x5
 6923 0511 02        		.byte	0x2
 6924 0512 0000 0000 		.long	.LM130
 6925 0516 15        		.byte	0x15
 6926 0517 00        		.byte	0x0
 6927 0518 05        		.uleb128 0x5
 6928 0519 02        		.byte	0x2
 6929 051a 0000 0000 		.long	.LM131
 6930 051e 57        		.byte	0x57
 6931 051f 00        		.byte	0x0
 6932 0520 05        		.uleb128 0x5
 6933 0521 02        		.byte	0x2
 6934 0522 0000 0000 		.long	.LM132
 6935 0526 15        		.byte	0x15
 6936 0527 00        		.byte	0x0
 6937 0528 05        		.uleb128 0x5
 6938 0529 02        		.byte	0x2
 6939 052a 0000 0000 		.long	.LM133
 6940 052e 03        		.byte	0x3
 6941 052f 43        		.sleb128 -61
 6942 0530 01        		.byte	0x1
 6943 0531 00        		.byte	0x0
 6944 0532 05        		.uleb128 0x5
 6945 0533 02        		.byte	0x2
 6946 0534 0000 0000 		.long	.LM134
 6947 0538 1A        		.byte	0x1a
 6948 0539 00        		.byte	0x0
 6949 053a 05        		.uleb128 0x5
 6950 053b 02        		.byte	0x2
 6951 053c 0000 0000 		.long	.LM135
 6952 0540 15        		.byte	0x15
 6953 0541 00        		.byte	0x0
 6954 0542 05        		.uleb128 0x5
 6955 0543 02        		.byte	0x2
 6956 0544 0000 0000 		.long	.LM136
 6957 0548 15        		.byte	0x15
 6958 0549 00        		.byte	0x0
 6959 054a 05        		.uleb128 0x5
 6960 054b 02        		.byte	0x2
 6961 054c 0000 0000 		.long	.LM137
 6962 0550 18        		.byte	0x18
GAS LISTING C:\DOKUME~1\Romahn\LOKALE~1\Temp/ccAI76Wf.s 			page 131


 6963 0551 00        		.byte	0x0
 6964 0552 05        		.uleb128 0x5
 6965 0553 02        		.byte	0x2
 6966 0554 0000 0000 		.long	.LM138
 6967 0558 16        		.byte	0x16
 6968 0559 00        		.byte	0x0
 6969 055a 05        		.uleb128 0x5
 6970 055b 02        		.byte	0x2
 6971 055c 0000 0000 		.long	.LM139
 6972 0560 15        		.byte	0x15
 6973 0561 00        		.byte	0x0
 6974 0562 05        		.uleb128 0x5
 6975 0563 02        		.byte	0x2
 6976 0564 0000 0000 		.long	.LM140
 6977 0568 15        		.byte	0x15
 6978 0569 00        		.byte	0x0
 6979 056a 05        		.uleb128 0x5
 6980 056b 02        		.byte	0x2
 6981 056c 0000 0000 		.long	.LM141
 6982 0570 15        		.byte	0x15
 6983 0571 00        		.byte	0x0
 6984 0572 05        		.uleb128 0x5
 6985 0573 02        		.byte	0x2
 6986 0574 0000 0000 		.long	.LM142
 6987 0578 19        		.byte	0x19
 6988 0579 00        		.byte	0x0
 6989 057a 05        		.uleb128 0x5
 6990 057b 02        		.byte	0x2
 6991 057c 0000 0000 		.long	.LM143
 6992 0580 15        		.byte	0x15
 6993 0581 00        		.byte	0x0
 6994 0582 05        		.uleb128 0x5
 6995 0583 02        		.byte	0x2
 6996 0584 0000 0000 		.long	.LM144
 6997 0588 16        		.byte	0x16
 6998 0589 00        		.byte	0x0
 6999 058a 05        		.uleb128 0x5
 7000 058b 02        		.byte	0x2
 7001 058c 0000 0000 		.long	.LM145
 7002 0590 15        		.byte	0x15
 7003 0591 00        		.byte	0x0
 7004 0592 05        		.uleb128 0x5
 7005 0593 02        		.byte	0x2
 7006 0594 0000 0000 		.long	.LM146
 7007 0598 15        		.byte	0x15
 7008 0599 00        		.byte	0x0
 7009 059a 05        		.uleb128 0x5
 7010 059b 02        		.byte	0x2
 7011 059c 0000 0000 		.long	.LM147
 7012 05a0 16        		.byte	0x16
 7013 05a1 00        		.byte	0x0
 7014 05a2 05        		.uleb128 0x5
 7015 05a3 02        		.byte	0x2
 7016 05a4 0000 0000 		.long	.LM148
 7017 05a8 15        		.byte	0x15
 7018 05a9 00        		.byte	0x0
 7019 05aa 05        		.uleb128 0x5
GAS LISTING C:\DOKUME~1\Romahn\LOKALE~1\Temp/ccAI76Wf.s 			page 132


 7020 05ab 02        		.byte	0x2
 7021 05ac 0000 0000 		.long	.LM149
 7022 05b0 19        		.byte	0x19
 7023 05b1 00        		.byte	0x0
 7024 05b2 05        		.uleb128 0x5
 7025 05b3 02        		.byte	0x2
 7026 05b4 0000 0000 		.long	.LM150
 7027 05b8 15        		.byte	0x15
 7028 05b9 00        		.byte	0x0
 7029 05ba 05        		.uleb128 0x5
 7030 05bb 02        		.byte	0x2
 7031 05bc 0000 0000 		.long	.LM151
 7032 05c0 17        		.byte	0x17
 7033 05c1 00        		.byte	0x0
 7034 05c2 05        		.uleb128 0x5
 7035 05c3 02        		.byte	0x2
 7036 05c4 0000 0000 		.long	.LM152
 7037 05c8 18        		.byte	0x18
 7038 05c9 00        		.byte	0x0
 7039 05ca 05        		.uleb128 0x5
 7040 05cb 02        		.byte	0x2
 7041 05cc 0000 0000 		.long	.LM153
 7042 05d0 15        		.byte	0x15
 7043 05d1 00        		.byte	0x0
 7044 05d2 05        		.uleb128 0x5
 7045 05d3 02        		.byte	0x2
 7046 05d4 0000 0000 		.long	.LM154
 7047 05d8 18        		.byte	0x18
 7048 05d9 00        		.byte	0x0
 7049 05da 05        		.uleb128 0x5
 7050 05db 02        		.byte	0x2
 7051 05dc 0000 0000 		.long	.LM155
 7052 05e0 16        		.byte	0x16
 7053 05e1 00        		.byte	0x0
 7054 05e2 05        		.uleb128 0x5
 7055 05e3 02        		.byte	0x2
 7056 05e4 0000 0000 		.long	.LM156
 7057 05e8 15        		.byte	0x15
 7058 05e9 00        		.byte	0x0
 7059 05ea 05        		.uleb128 0x5
 7060 05eb 02        		.byte	0x2
 7061 05ec 0000 0000 		.long	.LM157
 7062 05f0 19        		.byte	0x19
 7063 05f1 00        		.byte	0x0
 7064 05f2 05        		.uleb128 0x5
 7065 05f3 02        		.byte	0x2
 7066 05f4 0000 0000 		.long	.LM158
 7067 05f8 03        		.byte	0x3
 7068 05f9 EA7D      		.sleb128 -278
 7069 05fb 01        		.byte	0x1
 7070 05fc 00        		.byte	0x0
 7071 05fd 05        		.uleb128 0x5
 7072 05fe 02        		.byte	0x2
 7073 05ff 0000 0000 		.long	.LM159
 7074 0603 15        		.byte	0x15
 7075 0604 00        		.byte	0x0
 7076 0605 05        		.uleb128 0x5
GAS LISTING C:\DOKUME~1\Romahn\LOKALE~1\Temp/ccAI76Wf.s 			page 133


 7077 0606 02        		.byte	0x2
 7078 0607 0000 0000 		.long	.LM160
 7079 060b 16        		.byte	0x16
 7080 060c 00        		.byte	0x0
 7081 060d 05        		.uleb128 0x5
 7082 060e 02        		.byte	0x2
 7083 060f 0000 0000 		.long	.LM161
 7084 0613 18        		.byte	0x18
 7085 0614 00        		.byte	0x0
 7086 0615 05        		.uleb128 0x5
 7087 0616 02        		.byte	0x2
 7088 0617 0000 0000 		.long	.LM162
 7089 061b 16        		.byte	0x16
 7090 061c 00        		.byte	0x0
 7091 061d 05        		.uleb128 0x5
 7092 061e 02        		.byte	0x2
 7093 061f 0000 0000 		.long	.LM163
 7094 0623 15        		.byte	0x15
 7095 0624 00        		.byte	0x0
 7096 0625 05        		.uleb128 0x5
 7097 0626 02        		.byte	0x2
 7098 0627 0000 0000 		.long	.LM164
 7099 062b 1A        		.byte	0x1a
 7100 062c 00        		.byte	0x0
 7101 062d 05        		.uleb128 0x5
 7102 062e 02        		.byte	0x2
 7103 062f 0000 0000 		.long	.LM165
 7104 0633 15        		.byte	0x15
 7105 0634 00        		.byte	0x0
 7106 0635 05        		.uleb128 0x5
 7107 0636 02        		.byte	0x2
 7108 0637 0000 0000 		.long	.LM166
 7109 063b 15        		.byte	0x15
 7110 063c 00        		.byte	0x0
 7111 063d 05        		.uleb128 0x5
 7112 063e 02        		.byte	0x2
 7113 063f 0000 0000 		.long	.LM167
 7114 0643 03        		.byte	0x3
 7115 0644 A87F      		.sleb128 -88
 7116 0646 01        		.byte	0x1
 7117 0647 00        		.byte	0x0
 7118 0648 05        		.uleb128 0x5
 7119 0649 02        		.byte	0x2
 7120 064a 0000 0000 		.long	.LM168
 7121 064e 6C        		.byte	0x6c
 7122 064f 00        		.byte	0x0
 7123 0650 05        		.uleb128 0x5
 7124 0651 02        		.byte	0x2
 7125 0652 0000 0000 		.long	.LM169
 7126 0656 23        		.byte	0x23
 7127 0657 00        		.byte	0x0
 7128 0658 05        		.uleb128 0x5
 7129 0659 02        		.byte	0x2
 7130 065a 0000 0000 		.long	.LM170
 7131 065e 15        		.byte	0x15
 7132 065f 00        		.byte	0x0
 7133 0660 05        		.uleb128 0x5
GAS LISTING C:\DOKUME~1\Romahn\LOKALE~1\Temp/ccAI76Wf.s 			page 134


 7134 0661 02        		.byte	0x2
 7135 0662 0000 0000 		.long	.LM171
 7136 0666 15        		.byte	0x15
 7137 0667 00        		.byte	0x0
 7138 0668 05        		.uleb128 0x5
 7139 0669 02        		.byte	0x2
 7140 066a 0000 0000 		.long	.LM172
 7141 066e 17        		.byte	0x17
 7142 066f 00        		.byte	0x0
 7143 0670 05        		.uleb128 0x5
 7144 0671 02        		.byte	0x2
 7145 0672 0000 0000 		.long	.LM173
 7146 0676 15        		.byte	0x15
 7147 0677 00        		.byte	0x0
 7148 0678 05        		.uleb128 0x5
 7149 0679 02        		.byte	0x2
 7150 067a 0000 0000 		.long	.LM174
 7151 067e 1A        		.byte	0x1a
 7152 067f 00        		.byte	0x0
 7153 0680 05        		.uleb128 0x5
 7154 0681 02        		.byte	0x2
 7155 0682 0000 0000 		.long	.LM175
 7156 0686 15        		.byte	0x15
 7157 0687 00        		.byte	0x0
 7158 0688 05        		.uleb128 0x5
 7159 0689 02        		.byte	0x2
 7160 068a 0000 0000 		.long	.LM176
 7161 068e 15        		.byte	0x15
 7162 068f 00        		.byte	0x0
 7163 0690 05        		.uleb128 0x5
 7164 0691 02        		.byte	0x2
 7165 0692 0000 0000 		.long	.LM177
 7166 0696 15        		.byte	0x15
 7167 0697 00        		.byte	0x0
 7168 0698 05        		.uleb128 0x5
 7169 0699 02        		.byte	0x2
 7170 069a 0000 0000 		.long	.LM178
 7171 069e 16        		.byte	0x16
 7172 069f 00        		.byte	0x0
 7173 06a0 05        		.uleb128 0x5
 7174 06a1 02        		.byte	0x2
 7175 06a2 0000 0000 		.long	.LM179
 7176 06a6 13        		.byte	0x13
 7177 06a7 00        		.byte	0x0
 7178 06a8 05        		.uleb128 0x5
 7179 06a9 02        		.byte	0x2
 7180 06aa 0000 0000 		.long	.LM180
 7181 06ae 16        		.byte	0x16
 7182 06af 00        		.byte	0x0
 7183 06b0 05        		.uleb128 0x5
 7184 06b1 02        		.byte	0x2
 7185 06b2 0000 0000 		.long	.LM181
 7186 06b6 1A        		.byte	0x1a
 7187 06b7 00        		.byte	0x0
 7188 06b8 05        		.uleb128 0x5
 7189 06b9 02        		.byte	0x2
 7190 06ba 0000 0000 		.long	.LM182
GAS LISTING C:\DOKUME~1\Romahn\LOKALE~1\Temp/ccAI76Wf.s 			page 135


 7191 06be 15        		.byte	0x15
 7192 06bf 00        		.byte	0x0
 7193 06c0 05        		.uleb128 0x5
 7194 06c1 02        		.byte	0x2
 7195 06c2 0000 0000 		.long	.LM183
 7196 06c6 15        		.byte	0x15
 7197 06c7 00        		.byte	0x0
 7198 06c8 05        		.uleb128 0x5
 7199 06c9 02        		.byte	0x2
 7200 06ca 0000 0000 		.long	.LM184
 7201 06ce 17        		.byte	0x17
 7202 06cf 00        		.byte	0x0
 7203 06d0 05        		.uleb128 0x5
 7204 06d1 02        		.byte	0x2
 7205 06d2 0000 0000 		.long	.LM185
 7206 06d6 18        		.byte	0x18
 7207 06d7 00        		.byte	0x0
 7208 06d8 05        		.uleb128 0x5
 7209 06d9 02        		.byte	0x2
 7210 06da 0000 0000 		.long	.LM186
 7211 06de 15        		.byte	0x15
 7212 06df 00        		.byte	0x0
 7213 06e0 05        		.uleb128 0x5
 7214 06e1 02        		.byte	0x2
 7215 06e2 0000 0000 		.long	.LM187
 7216 06e6 15        		.byte	0x15
 7217 06e7 00        		.byte	0x0
 7218 06e8 05        		.uleb128 0x5
 7219 06e9 02        		.byte	0x2
 7220 06ea 0000 0000 		.long	.LM188
 7221 06ee 1B        		.byte	0x1b
 7222 06ef 00        		.byte	0x0
 7223 06f0 05        		.uleb128 0x5
 7224 06f1 02        		.byte	0x2
 7225 06f2 0000 0000 		.long	.LM189
 7226 06f6 16        		.byte	0x16
 7227 06f7 00        		.byte	0x0
 7228 06f8 05        		.uleb128 0x5
 7229 06f9 02        		.byte	0x2
 7230 06fa 0000 0000 		.long	.LM190
 7231 06fe 15        		.byte	0x15
 7232 06ff 00        		.byte	0x0
 7233 0700 05        		.uleb128 0x5
 7234 0701 02        		.byte	0x2
 7235 0702 0000 0000 		.long	.LM191
 7236 0706 15        		.byte	0x15
 7237 0707 00        		.byte	0x0
 7238 0708 05        		.uleb128 0x5
 7239 0709 02        		.byte	0x2
 7240 070a 0000 0000 		.long	.LM192
 7241 070e 16        		.byte	0x16
 7242 070f 00        		.byte	0x0
 7243 0710 05        		.uleb128 0x5
 7244 0711 02        		.byte	0x2
 7245 0712 0000 0000 		.long	.LM193
 7246 0716 17        		.byte	0x17
 7247 0717 00        		.byte	0x0
GAS LISTING C:\DOKUME~1\Romahn\LOKALE~1\Temp/ccAI76Wf.s 			page 136


 7248 0718 05        		.uleb128 0x5
 7249 0719 02        		.byte	0x2
 7250 071a 0000 0000 		.long	.LM194
 7251 071e 15        		.byte	0x15
 7252 071f 00        		.byte	0x0
 7253 0720 05        		.uleb128 0x5
 7254 0721 02        		.byte	0x2
 7255 0722 0000 0000 		.long	.LM195
 7256 0726 16        		.byte	0x16
 7257 0727 00        		.byte	0x0
 7258 0728 05        		.uleb128 0x5
 7259 0729 02        		.byte	0x2
 7260 072a 0000 0000 		.long	.LM196
 7261 072e 33        		.byte	0x33
 7262 072f 00        		.byte	0x0
 7263 0730 05        		.uleb128 0x5
 7264 0731 02        		.byte	0x2
 7265 0732 0000 0000 		.long	.LM197
 7266 0736 01        		.byte	0x1
 7267 0737 00        		.byte	0x0
 7268 0738 05        		.uleb128 0x5
 7269 0739 02        		.byte	0x2
 7270 073a 0000 0000 		.long	.LM198
 7271 073e 04        		.byte	0x4
 7272 073f 02        		.uleb128 0x2
 7273 0740 03        		.byte	0x3
 7274 0741 D07C      		.sleb128 -432
 7275 0743 01        		.byte	0x1
 7276 0744 00        		.byte	0x0
 7277 0745 05        		.uleb128 0x5
 7278 0746 02        		.byte	0x2
 7279 0747 0000 0000 		.long	.LM199
 7280 074b 04        		.byte	0x4
 7281 074c 03        		.uleb128 0x3
 7282 074d 27        		.byte	0x27
 7283 074e 00        		.byte	0x0
 7284 074f 05        		.uleb128 0x5
 7285 0750 02        		.byte	0x2
 7286 0751 0000 0000 		.long	.LM200
 7287 0755 10        		.byte	0x10
 7288 0756 00        		.byte	0x0
 7289 0757 05        		.uleb128 0x5
 7290 0758 02        		.byte	0x2
 7291 0759 0000 0000 		.long	.LM201
 7292 075d 04        		.byte	0x4
 7293 075e 01        		.uleb128 0x1
 7294 075f 03        		.byte	0x3
 7295 0760 A303      		.sleb128 419
 7296 0762 01        		.byte	0x1
 7297 0763 00        		.byte	0x0
 7298 0764 05        		.uleb128 0x5
 7299 0765 02        		.byte	0x2
 7300 0766 0000 0000 		.long	.LM202
 7301 076a 04        		.byte	0x4
 7302 076b 02        		.uleb128 0x2
 7303 076c 03        		.byte	0x3
 7304 076d CE7C      		.sleb128 -434
GAS LISTING C:\DOKUME~1\Romahn\LOKALE~1\Temp/ccAI76Wf.s 			page 137


 7305 076f 01        		.byte	0x1
 7306 0770 00        		.byte	0x0
 7307 0771 05        		.uleb128 0x5
 7308 0772 02        		.byte	0x2
 7309 0773 0000 0000 		.long	.LM203
 7310 0777 04        		.byte	0x4
 7311 0778 03        		.uleb128 0x3
 7312 0779 27        		.byte	0x27
 7313 077a 00        		.byte	0x0
 7314 077b 05        		.uleb128 0x5
 7315 077c 02        		.byte	0x2
 7316 077d 0000 0000 		.long	.LM204
 7317 0781 10        		.byte	0x10
 7318 0782 00        		.byte	0x0
 7319 0783 05        		.uleb128 0x5
 7320 0784 02        		.byte	0x2
 7321 0785 0000 0000 		.long	.LM205
 7322 0789 04        		.byte	0x4
 7323 078a 01        		.uleb128 0x1
 7324 078b 03        		.byte	0x3
 7325 078c A503      		.sleb128 421
 7326 078e 01        		.byte	0x1
 7327 078f 00        		.byte	0x0
 7328 0790 05        		.uleb128 0x5
 7329 0791 02        		.byte	0x2
 7330 0792 0000 0000 		.long	.LM206
 7331 0796 15        		.byte	0x15
 7332 0797 00        		.byte	0x0
 7333 0798 05        		.uleb128 0x5
 7334 0799 02        		.byte	0x2
 7335 079a 0000 0000 		.long	.LM207
 7336 079e 15        		.byte	0x15
 7337 079f 00        		.byte	0x0
 7338 07a0 05        		.uleb128 0x5
 7339 07a1 02        		.byte	0x2
 7340 07a2 0000 0000 		.long	.LM208
 7341 07a6 04        		.byte	0x4
 7342 07a7 02        		.uleb128 0x2
 7343 07a8 03        		.byte	0x3
 7344 07a9 CA7C      		.sleb128 -438
 7345 07ab 01        		.byte	0x1
 7346 07ac 00        		.byte	0x0
 7347 07ad 05        		.uleb128 0x5
 7348 07ae 02        		.byte	0x2
 7349 07af 0000 0000 		.long	.LM209
 7350 07b3 04        		.byte	0x4
 7351 07b4 03        		.uleb128 0x3
 7352 07b5 27        		.byte	0x27
 7353 07b6 00        		.byte	0x0
 7354 07b7 05        		.uleb128 0x5
 7355 07b8 02        		.byte	0x2
 7356 07b9 0000 0000 		.long	.LM210
 7357 07bd 10        		.byte	0x10
 7358 07be 00        		.byte	0x0
 7359 07bf 05        		.uleb128 0x5
 7360 07c0 02        		.byte	0x2
 7361 07c1 0000 0000 		.long	.LM211
GAS LISTING C:\DOKUME~1\Romahn\LOKALE~1\Temp/ccAI76Wf.s 			page 138


 7362 07c5 04        		.byte	0x4
 7363 07c6 01        		.uleb128 0x1
 7364 07c7 03        		.byte	0x3
 7365 07c8 AB03      		.sleb128 427
 7366 07ca 01        		.byte	0x1
 7367 07cb 00        		.byte	0x0
 7368 07cc 05        		.uleb128 0x5
 7369 07cd 02        		.byte	0x2
 7370 07ce 0000 0000 		.long	.LM212
 7371 07d2 18        		.byte	0x18
 7372 07d3 00        		.byte	0x0
 7373 07d4 05        		.uleb128 0x5
 7374 07d5 02        		.byte	0x2
 7375 07d6 0000 0000 		.long	.LM213
 7376 07da 03        		.byte	0x3
 7377 07db C67C      		.sleb128 -442
 7378 07dd 01        		.byte	0x1
 7379 07de 00        		.byte	0x0
 7380 07df 05        		.uleb128 0x5
 7381 07e0 02        		.byte	0x2
 7382 07e1 0000 0000 		.long	.LM214
 7383 07e5 15        		.byte	0x15
 7384 07e6 00        		.byte	0x0
 7385 07e7 05        		.uleb128 0x5
 7386 07e8 02        		.byte	0x2
 7387 07e9 0000 0000 		.long	.LM215
 7388 07ed 15        		.byte	0x15
 7389 07ee 00        		.byte	0x0
 7390 07ef 05        		.uleb128 0x5
 7391 07f0 02        		.byte	0x2
 7392 07f1 0000 0000 		.long	.LM216
 7393 07f5 03        		.byte	0x3
 7394 07f6 BB03      		.sleb128 443
 7395 07f8 01        		.byte	0x1
 7396 07f9 00        		.byte	0x0
 7397 07fa 05        		.uleb128 0x5
 7398 07fb 02        		.byte	0x2
 7399 07fc 0000 0000 		.long	.LM217
 7400 0800 15        		.byte	0x15
 7401 0801 00        		.byte	0x0
 7402 0802 05        		.uleb128 0x5
 7403 0803 02        		.byte	0x2
 7404 0804 0000 0000 		.long	.LM218
 7405 0808 15        		.byte	0x15
 7406 0809 00        		.byte	0x0
 7407 080a 05        		.uleb128 0x5
 7408 080b 02        		.byte	0x2
 7409 080c 0000 0000 		.long	.LM219
 7410 0810 15        		.byte	0x15
 7411 0811 00        		.byte	0x0
 7412 0812 05        		.uleb128 0x5
 7413 0813 02        		.byte	0x2
 7414 0814 0000 0000 		.long	.LM220
 7415 0818 15        		.byte	0x15
 7416 0819 00        		.byte	0x0
 7417 081a 05        		.uleb128 0x5
 7418 081b 02        		.byte	0x2
GAS LISTING C:\DOKUME~1\Romahn\LOKALE~1\Temp/ccAI76Wf.s 			page 139


 7419 081c 0000 0000 		.long	.LM221
 7420 0820 03        		.byte	0x3
 7421 0821 BF7C      		.sleb128 -449
 7422 0823 01        		.byte	0x1
 7423 0824 00        		.byte	0x0
 7424 0825 05        		.uleb128 0x5
 7425 0826 02        		.byte	0x2
 7426 0827 0000 0000 		.long	.LM222
 7427 082b 15        		.byte	0x15
 7428 082c 00        		.byte	0x0
 7429 082d 05        		.uleb128 0x5
 7430 082e 02        		.byte	0x2
 7431 082f 0000 0000 		.long	.LM223
 7432 0833 15        		.byte	0x15
 7433 0834 00        		.byte	0x0
 7434 0835 05        		.uleb128 0x5
 7435 0836 02        		.byte	0x2
 7436 0837 0000 0000 		.long	.LM224
 7437 083b 03        		.byte	0x3
 7438 083c C003      		.sleb128 448
 7439 083e 01        		.byte	0x1
 7440 083f 00        		.byte	0x0
 7441 0840 05        		.uleb128 0x5
 7442 0841 02        		.byte	0x2
 7443 0842 0000 0000 		.long	.LM225
 7444 0846 15        		.byte	0x15
 7445 0847 00        		.byte	0x0
 7446 0848 05        		.uleb128 0x5
 7447 0849 02        		.byte	0x2
 7448 084a 0000 0000 		.long	.LM226
 7449 084e 15        		.byte	0x15
 7450 084f 00        		.byte	0x0
 7451 0850 05        		.uleb128 0x5
 7452 0851 02        		.byte	0x2
 7453 0852 0000 0000 		.long	.LM227
 7454 0856 15        		.byte	0x15
 7455 0857 00        		.byte	0x0
 7456 0858 05        		.uleb128 0x5
 7457 0859 02        		.byte	0x2
 7458 085a 0000 0000 		.long	.LM228
 7459 085e 15        		.byte	0x15
 7460 085f 00        		.byte	0x0
 7461 0860 05        		.uleb128 0x5
 7462 0861 02        		.byte	0x2
 7463 0862 0000 0000 		.long	.LM229
 7464 0866 17        		.byte	0x17
 7465 0867 00        		.byte	0x0
 7466 0868 05        		.uleb128 0x5
 7467 0869 02        		.byte	0x2
 7468 086a 0000 0000 		.long	.LM230
 7469 086e 15        		.byte	0x15
 7470 086f 00        		.byte	0x0
 7471 0870 05        		.uleb128 0x5
 7472 0871 02        		.byte	0x2
 7473 0872 0000 0000 		.long	.LM231
 7474 0876 15        		.byte	0x15
 7475 0877 00        		.byte	0x0
GAS LISTING C:\DOKUME~1\Romahn\LOKALE~1\Temp/ccAI76Wf.s 			page 140


 7476 0878 05        		.uleb128 0x5
 7477 0879 02        		.byte	0x2
 7478 087a 0000 0000 		.long	.LM232
 7479 087e 15        		.byte	0x15
 7480 087f 00        		.byte	0x0
 7481 0880 05        		.uleb128 0x5
 7482 0881 02        		.byte	0x2
 7483 0882 0000 0000 		.long	.LM233
 7484 0886 15        		.byte	0x15
 7485 0887 00        		.byte	0x0
 7486 0888 05        		.uleb128 0x5
 7487 0889 02        		.byte	0x2
 7488 088a 0000 0000 		.long	.LM234
 7489 088e 15        		.byte	0x15
 7490 088f 00        		.byte	0x0
 7491 0890 05        		.uleb128 0x5
 7492 0891 02        		.byte	0x2
 7493 0892 0000 0000 		.long	.LM235
 7494 0896 15        		.byte	0x15
 7495 0897 00        		.byte	0x0
 7496 0898 05        		.uleb128 0x5
 7497 0899 02        		.byte	0x2
 7498 089a 0000 0000 		.long	.LM236
 7499 089e 18        		.byte	0x18
 7500 089f 00        		.byte	0x0
 7501 08a0 05        		.uleb128 0x5
 7502 08a1 02        		.byte	0x2
 7503 08a2 0000 0000 		.long	.LM237
 7504 08a6 1C        		.byte	0x1c
 7505 08a7 00        		.byte	0x0
 7506 08a8 05        		.uleb128 0x5
 7507 08a9 02        		.byte	0x2
 7508 08aa 0000 0000 		.long	.LM238
 7509 08ae 15        		.byte	0x15
 7510 08af 00        		.byte	0x0
 7511 08b0 05        		.uleb128 0x5
 7512 08b1 02        		.byte	0x2
 7513 08b2 0000 0000 		.long	.LM239
 7514 08b6 15        		.byte	0x15
 7515 08b7 00        		.byte	0x0
 7516 08b8 05        		.uleb128 0x5
 7517 08b9 02        		.byte	0x2
 7518 08ba 0000 0000 		.long	.Letext0
 7519 08be 00        		.byte	0x0
 7520 08bf 01        		.uleb128 0x1
 7521 08c0 01        		.byte	0x1
 7522               	.LELT0:
 7523 08c1 1600 0000 		.section	.debug_str,"MS",@progbits,1
 7523      0200 1000 
 7523      0000 0101 
 7523      FB0E 0A00 
 7523      0101 0101 
 7524               	.LASF30:
 7525 0000 5F64 656C 		.string	"_delay_ms"
 7525      6179 5F6D 
 7525      7300 
 7526               	.LASF41:
GAS LISTING C:\DOKUME~1\Romahn\LOKALE~1\Temp/ccAI76Wf.s 			page 141


 7527 000a 4770 7357 		.string	"GpsWeek"
 7527      6565 6B00 
 7528               	.LASF55:
 7529 0012 4461 7953 		.string	"DaySeconds"
 7529      6563 6F6E 
 7529      6473 00
 7530               	.LASF58:
 7531 001d 5375 6D6D 		.string	"SummerMjd"
 7531      6572 4D6A 
 7531      6400 
 7532               	.LASF17:
 7533 0027 7574 634F 		.string	"utcOffset"
 7533      6666 7365 
 7533      7400 
 7534               	.LASF11:
 7535 0031 6C6F 6E67 		.string	"long long unsigned int"
 7535      206C 6F6E 
 7535      6720 756E 
 7535      7369 676E 
 7535      6564 2069 
 7536               	.LASF116:
 7537 0048 6372 6974 		.string	"criticalalarm"
 7537      6963 616C 
 7537      616C 6172 
 7537      6D00 
 7538               	.LASF53:
 7539 0056 7473 6970 		.string	"tsipDecodeGPSTIME"
 7539      4465 636F 
 7539      6465 4750 
 7539      5354 494D 
 7539      4500 
 7540               	.LASF74:
 7541 0068 6469 7363 		.string	"disciplinmode2"
 7541      6970 6C69 
 7541      6E6D 6F64 
 7541      6532 00
 7542               	.LASF4:
 7543 0077 696E 7431 		.string	"int16_t"
 7543      365F 7400 
 7544               	.LASF10:
 7545 007f 6C6F 6E67 		.string	"long long int"
 7545      206C 6F6E 
 7545      6720 696E 
 7545      7400 
 7546               	.LASF2:
 7547 008d 7369 676E 		.string	"signed char"
 7547      6564 2063 
 7547      6861 7200 
 7548               	.LASF49:
 7549 0099 4D6A 6454 		.string	"MjdToDate"
 7549      6F44 6174 
 7549      6500 
 7550               	.LASF69:
 7551 00a3 6E65 7773 		.string	"newsec"
 7551      6563 00
 7552               	.LASF120:
 7553 00aa 7278 4275 		.string	"rxBuffer"
GAS LISTING C:\DOKUME~1\Romahn\LOKALE~1\Temp/ccAI76Wf.s 			page 142


 7553      6666 6572 
 7553      00
 7554               	.LASF117:
 7555 00b3 7473 6970 		.string	"tsipGPSTIME"
 7555      4750 5354 
 7555      494D 4500 
 7556               	.LASF23:
 7557 00bf 7965 6172 		.string	"year"
 7557      00
 7558               	.LASF7:
 7559 00c4 6C6F 6E67 		.string	"long int"
 7559      2069 6E74 
 7559      00
 7560               	.LASF123:
 7561 00cd 643A 5C61 		.string	"d:\\avr\\tbolt2lcd"
 7561      7672 5C74 
 7561      626F 6C74 
 7561      326C 6364 
 7561      00
 7562               	.LASF38:
 7563 00de 4D6F 6E74 		.string	"Month"
 7563      6800 
 7564               	.LASF5:
 7565 00e4 7569 6E74 		.string	"uint16_t"
 7565      3136 5F74 
 7565      00
 7566               	.LASF103:
 7567 00ed 6465 636F 		.string	"decodingmalarm1"
 7567      6469 6E67 
 7567      6D61 6C61 
 7567      726D 3100 
 7568               	.LASF34:
 7569 00fd 646F 7562 		.string	"double"
 7569      6C65 00
 7570               	.LASF105:
 7571 0104 6465 636F 		.string	"decodingmalarm3"
 7571      6469 6E67 
 7571      6D61 6C61 
 7571      726D 3300 
 7572               	.LASF106:
 7573 0114 6465 636F 		.string	"decodingmalarm4"
 7573      6469 6E67 
 7573      6D61 6C61 
 7573      726D 3400 
 7574               	.LASF107:
 7575 0124 6465 636F 		.string	"decodingmalarm5"
 7575      6469 6E67 
 7575      6D61 6C61 
 7575      726D 3500 
 7576               	.LASF108:
 7577 0134 6465 636F 		.string	"decodingmalarm6"
 7577      6469 6E67 
 7577      6D61 6C61 
 7577      726D 3600 
 7578               	.LASF109:
 7579 0144 6465 636F 		.string	"decodingmalarm7"
 7579      6469 6E67 
GAS LISTING C:\DOKUME~1\Romahn\LOKALE~1\Temp/ccAI76Wf.s 			page 143


 7579      6D61 6C61 
 7579      726D 3700 
 7580               	.LASF110:
 7581 0154 6465 636F 		.string	"decodingmalarm8"
 7581      6469 6E67 
 7581      6D61 6C61 
 7581      726D 3800 
 7582               	.LASF111:
 7583 0164 6465 636F 		.string	"decodingmalarm9"
 7583      6469 6E67 
 7583      6D61 6C61 
 7583      726D 3900 
 7584               	.LASF64:
 7585 0174 6770 7374 		.string	"gpstime"
 7585      696D 6500 
 7586               	.LASF35:
 7587 017c 7473 6970 		.string	"tsipDecodeSTATUS"
 7587      4465 636F 
 7587      6465 5354 
 7587      4154 5553 
 7587      00
 7588               	.LASF26:
 7589 018d 7377 6170 		.string	"swap_uint16"
 7589      5F75 696E 
 7589      7431 3600 
 7590               	.LASF33:
 7591 0199 5F5F 746D 		.string	"__tmp"
 7591      7000 
 7592               	.LASF121:
 7593 019f 474E 5520 		.string	"GNU C 4.3.3"
 7593      4320 342E 
 7593      332E 3300 
 7594               	.LASF15:
 7595 01ab 7469 6D65 		.string	"timeOfWeek"
 7595      4F66 5765 
 7595      656B 00
 7596               	.LASF75:
 7597 01b6 6469 7363 		.string	"disciplinmode3"
 7597      6970 6C69 
 7597      6E6D 6F64 
 7597      6533 00
 7598               	.LASF61:
 7599 01c5 6C63 6453 		.string	"lcdScreen"
 7599      6372 6565 
 7599      6E00 
 7600               	.LASF88:
 7601 01cf 6465 636F 		.string	"decodingstatus12"
 7601      6469 6E67 
 7601      7374 6174 
 7601      7573 3132 
 7601      00
 7602               	.LASF89:
 7603 01e0 6465 636F 		.string	"decodingstatus16"
 7603      6469 6E67 
 7603      7374 6174 
 7603      7573 3136 
 7603      00
GAS LISTING C:\DOKUME~1\Romahn\LOKALE~1\Temp/ccAI76Wf.s 			page 144


 7604               	.LASF22:
 7605 01f1 6D6F 6E74 		.string	"month"
 7605      6800 
 7606               	.LASF6:
 7607 01f7 756E 7369 		.string	"unsigned int"
 7607      676E 6564 
 7607      2069 6E74 
 7607      00
 7608               	.LASF65:
 7609 0204 6770 7368 		.string	"gpshealth"
 7609      6561 6C74 
 7609      6800 
 7610               	.LASF57:
 7611 020e 6C61 7374 		.string	"lastSundayOctober"
 7611      5375 6E64 
 7611      6179 4F63 
 7611      746F 6265 
 7611      7200 
 7612               	.LASF102:
 7613 0220 6465 636F 		.string	"decodingmalarm0"
 7613      6469 6E67 
 7613      6D61 6C61 
 7613      726D 3000 
 7614               	.LASF9:
 7615 0230 6C6F 6E67 		.string	"long unsigned int"
 7615      2075 6E73 
 7615      6967 6E65 
 7615      6420 696E 
 7615      7400 
 7616               	.LASF44:
 7617 0242 6877 696E 		.string	"hwinit"
 7617      6974 00
 7618               	.LASF16:
 7619 0249 7765 656B 		.string	"weekNumber"
 7619      4E75 6D62 
 7619      6572 00
 7620               	.LASF115:
 7621 0254 6465 636F 		.string	"decodingmalarmu"
 7621      6469 6E67 
 7621      6D61 6C61 
 7621      726D 7500 
 7622               	.LASF47:
 7623 0264 5F5F 7665 		.string	"__vector_1"
 7623      6374 6F72 
 7623      5F31 00
 7624               	.LASF46:
 7625 026f 5F5F 7665 		.string	"__vector_6"
 7625      6374 6F72 
 7625      5F36 00
 7626               	.LASF45:
 7627 027a 5F5F 7665 		.string	"__vector_7"
 7627      6374 6F72 
 7627      5F37 00
 7628               	.LASF50:
 7629 0285 5F5F 7665 		.string	"__vector_9"
 7629      6374 6F72 
 7629      5F39 00
GAS LISTING C:\DOKUME~1\Romahn\LOKALE~1\Temp/ccAI76Wf.s 			page 145


 7630               	.LASF37:
 7631 0290 5965 6172 		.string	"Year"
 7631      00
 7632               	.LASF31:
 7633 0295 5F5F 6D73 		.string	"__ms"
 7633      00
 7634               	.LASF67:
 7635 029a 6D69 6E6F 		.string	"minorbit"
 7635      7262 6974 
 7635      00
 7636               	.LASF122:
 7637 02a3 6D61 696E 		.string	"main.c"
 7637      2E63 00
 7638               	.LASF124:
 7639 02aa 7473 6970 		.string	"tsipDecodeSATELLITE"
 7639      4465 636F 
 7639      6465 5341 
 7639      5445 4C4C 
 7639      4954 4500 
 7640               	.LASF62:
 7641 02be 7379 7374 		.string	"systime"
 7641      696D 6500 
 7642               	.LASF91:
 7643 02c6 6465 636F 		.string	"decodingactivity0"
 7643      6469 6E67 
 7643      6163 7469 
 7643      7669 7479 
 7643      3000 
 7644               	.LASF92:
 7645 02d8 6465 636F 		.string	"decodingactivity1"
 7645      6469 6E67 
 7645      6163 7469 
 7645      7669 7479 
 7645      3100 
 7646               	.LASF93:
 7647 02ea 6465 636F 		.string	"decodingactivity2"
 7647      6469 6E67 
 7647      6163 7469 
 7647      7669 7479 
 7647      3200 
 7648               	.LASF94:
 7649 02fc 6465 636F 		.string	"decodingactivity3"
 7649      6469 6E67 
 7649      6163 7469 
 7649      7669 7479 
 7649      3300 
 7650               	.LASF95:
 7651 030e 6465 636F 		.string	"decodingactivity4"
 7651      6469 6E67 
 7651      6163 7469 
 7651      7669 7479 
 7651      3400 
 7652               	.LASF96:
 7653 0320 6465 636F 		.string	"decodingactivity5"
 7653      6469 6E67 
 7653      6163 7469 
 7653      7669 7479 
GAS LISTING C:\DOKUME~1\Romahn\LOKALE~1\Temp/ccAI76Wf.s 			page 146


 7653      3500 
 7654               	.LASF97:
 7655 0332 6465 636F 		.string	"decodingactivity6"
 7655      6469 6E67 
 7655      6163 7469 
 7655      7669 7479 
 7655      3600 
 7656               	.LASF99:
 7657 0344 6465 636F 		.string	"decodingactivity8"
 7657      6469 6E67 
 7657      6163 7469 
 7657      7669 7479 
 7657      3800 
 7658               	.LASF100:
 7659 0356 6465 636F 		.string	"decodingactivity9"
 7659      6469 6E67 
 7659      6163 7469 
 7659      7669 7479 
 7659      3900 
 7660               	.LASF114:
 7661 0368 6465 636F 		.string	"decodingmalarm12"
 7661      6469 6E67 
 7661      6D61 6C61 
 7661      726D 3132 
 7661      00
 7662               	.LASF39:
 7663 0379 4770 7354 		.string	"GpsToMjd"
 7663      6F4D 6A64 
 7663      00
 7664               	.LASF43:
 7665 0382 4770 7344 		.string	"GpsDays"
 7665      6179 7300 
 7666               	.LASF70:
 7667 038a 7473 6970 		.string	"tsipSATELLITE"
 7667      5341 5445 
 7667      4C4C 4954 
 7667      4500 
 7668               	.LASF24:
 7669 0398 6770 735F 		.string	"gps_time_t"
 7669      7469 6D65 
 7669      5F74 00
 7670               	.LASF28:
 7671 03a3 7377 6170 		.string	"swap_uint32"
 7671      5F75 696E 
 7671      7433 3200 
 7672               	.LASF119:
 7673 03af 6D6F 6E74 		.string	"months"
 7673      6873 00
 7674               	.LASF72:
 7675 03b6 6469 7363 		.string	"disciplinmode0"
 7675      6970 6C69 
 7675      6E6D 6F64 
 7675      6530 00
 7676               	.LASF73:
 7677 03c5 6469 7363 		.string	"disciplinmode1"
 7677      6970 6C69 
 7677      6E6D 6F64 
GAS LISTING C:\DOKUME~1\Romahn\LOKALE~1\Temp/ccAI76Wf.s 			page 147


 7677      6531 00
 7678               	.LASF14:
 7679 03d4 7375 6263 		.string	"subcode"
 7679      6F64 6500 
 7680               	.LASF76:
 7681 03dc 6469 7363 		.string	"disciplinmode4"
 7681      6970 6C69 
 7681      6E6D 6F64 
 7681      6534 00
 7682               	.LASF77:
 7683 03eb 6469 7363 		.string	"disciplinmode5"
 7683      6970 6C69 
 7683      6E6D 6F64 
 7683      6535 00
 7684               	.LASF78:
 7685 03fa 6469 7363 		.string	"disciplinmode6"
 7685      6970 6C69 
 7685      6E6D 6F64 
 7685      6536 00
 7686               	.LASF25:
 7687 0409 7469 6D65 		.string	"time"
 7687      00
 7688               	.LASF101:
 7689 040e 6465 636F 		.string	"decodingactivityu"
 7689      6469 6E67 
 7689      6163 7469 
 7689      7669 7479 
 7689      7500 
 7690               	.LASF19:
 7691 0420 7365 636F 		.string	"seconds"
 7691      6E64 7300 
 7692               	.LASF20:
 7693 0428 6D69 6E75 		.string	"minutes"
 7693      7465 7300 
 7694               	.LASF54:
 7695 0430 7469 6D65 		.string	"timezonechar"
 7695      7A6F 6E65 
 7695      6368 6172 
 7695      00
 7696               	.LASF29:
 7697 043d 5F64 656C 		.string	"_delay_loop_2"
 7697      6179 5F6C 
 7697      6F6F 705F 
 7697      3200 
 7698               	.LASF3:
 7699 044b 756E 7369 		.string	"unsigned char"
 7699      676E 6564 
 7699      2063 6861 
 7699      7200 
 7700               	.LASF21:
 7701 0459 686F 7572 		.string	"hours"
 7701      7300 
 7702               	.LASF79:
 7703 045f 6469 7363 		.string	"disciplinmodeu"
 7703      6970 6C69 
 7703      6E6D 6F64 
 7703      6575 00
GAS LISTING C:\DOKUME~1\Romahn\LOKALE~1\Temp/ccAI76Wf.s 			page 148


 7704               	.LASF80:
 7705 046e 6465 636F 		.string	"decodingstatus0"
 7705      6469 6E67 
 7705      7374 6174 
 7705      7573 3000 
 7706               	.LASF81:
 7707 047e 6465 636F 		.string	"decodingstatus1"
 7707      6469 6E67 
 7707      7374 6174 
 7707      7573 3100 
 7708               	.LASF82:
 7709 048e 6465 636F 		.string	"decodingstatus2"
 7709      6469 6E67 
 7709      7374 6174 
 7709      7573 3200 
 7710               	.LASF83:
 7711 049e 6465 636F 		.string	"decodingstatus3"
 7711      6469 6E67 
 7711      7374 6174 
 7711      7573 3300 
 7712               	.LASF118:
 7713 04ae 6770 735F 		.string	"gps_time"
 7713      7469 6D65 
 7713      00
 7714               	.LASF66:
 7715 04b7 6D69 6E6F 		.string	"minorwert"
 7715      7277 6572 
 7715      7400 
 7716               	.LASF84:
 7717 04c1 6465 636F 		.string	"decodingstatus8"
 7717      6469 6E67 
 7717      7374 6174 
 7717      7573 3800 
 7718               	.LASF85:
 7719 04d1 6465 636F 		.string	"decodingstatus9"
 7719      6469 6E67 
 7719      7374 6174 
 7719      7573 3900 
 7720               	.LASF56:
 7721 04e1 6C61 7374 		.string	"lastSundayMarch"
 7721      5375 6E64 
 7721      6179 4D61 
 7721      7263 6800 
 7722               	.LASF27:
 7723 04f1 5F5F 636F 		.string	"__count"
 7723      756E 7400 
 7724               	.LASF8:
 7725 04f9 7569 6E74 		.string	"uint32_t"
 7725      3332 5F74 
 7725      00
 7726               	.LASF13:
 7727 0502 6368 6172 		.string	"char"
 7727      00
 7728               	.LASF71:
 7729 0507 7473 6970 		.string	"tsipSTATUS"
 7729      5354 4154 
 7729      5553 00
GAS LISTING C:\DOKUME~1\Romahn\LOKALE~1\Temp/ccAI76Wf.s 			page 149


 7730               	.LASF86:
 7731 0512 6465 636F 		.string	"decodingstatus10"
 7731      6469 6E67 
 7731      7374 6174 
 7731      7573 3130 
 7731      00
 7732               	.LASF87:
 7733 0523 6465 636F 		.string	"decodingstatus11"
 7733      6469 6E67 
 7733      7374 6174 
 7733      7573 3131 
 7733      00
 7734               	.LASF42:
 7735 0534 4770 7353 		.string	"GpsSeconds"
 7735      6563 6F6E 
 7735      6473 00
 7736               	.LASF90:
 7737 053f 6465 636F 		.string	"decodingstatusu"
 7737      6469 6E67 
 7737      7374 6174 
 7737      7573 7500 
 7738               	.LASF68:
 7739 054f 7361 7463 		.string	"satcount"
 7739      6F75 6E74 
 7739      00
 7740               	.LASF12:
 7741 0558 7072 6F67 		.string	"prog_char"
 7741      5F63 6861 
 7741      7200 
 7742               	.LASF0:
 7743 0562 696E 7438 		.string	"int8_t"
 7743      5F74 00
 7744               	.LASF112:
 7745 0569 6465 636F 		.string	"decodingmalarm10"
 7745      6469 6E67 
 7745      6D61 6C61 
 7745      726D 3130 
 7745      00
 7746               	.LASF113:
 7747 057a 6465 636F 		.string	"decodingmalarm11"
 7747      6469 6E67 
 7747      6D61 6C61 
 7747      726D 3131 
 7747      00
 7748               	.LASF18:
 7749 058b 7469 6D69 		.string	"timingFlag"
 7749      6E67 466C 
 7749      6167 00
 7750               	.LASF52:
 7751 0596 7278 4275 		.string	"rxBufLen"
 7751      664C 656E 
 7751      00
 7752               	.LASF1:
 7753 059f 7569 6E74 		.string	"uint8_t"
 7753      385F 7400 
 7754               	.LASF48:
 7755 05a7 5F5F 7665 		.string	"__vector_10"
GAS LISTING C:\DOKUME~1\Romahn\LOKALE~1\Temp/ccAI76Wf.s 			page 150


 7755      6374 6F72 
 7755      5F31 3000 
 7756               	.LASF32:
 7757 05b3 5F5F 7469 		.string	"__ticks"
 7757      636B 7300 
 7758               	.LASF36:
 7759 05bb 4461 7465 		.string	"DateToMjd"
 7759      546F 4D6A 
 7759      6400 
 7760               	.LASF51:
 7761 05c5 7374 7566 		.string	"stuff"
 7761      6600 
 7762               	.LASF104:
 7763 05cb 6465 636F 		.string	"decodingmalarm2"
 7763      6469 6E67 
 7763      6D61 6C61 
 7763      726D 3200 
 7764               	.LASF63:
 7765 05db 6C61 7374 		.string	"lastgpspkt"
 7765      6770 7370 
 7765      6B74 00
 7766               	.LASF59:
 7767 05e6 5769 6E74 		.string	"WinterMjd"
 7767      6572 4D6A 
 7767      6400 
 7768               	.LASF98:
 7769 05f0 6465 636F 		.string	"decodingactivity7"
 7769      6469 6E67 
 7769      6163 7469 
 7769      7669 7479 
 7769      3700 
 7770               	.LASF60:
 7771 0602 6D61 696E 		.string	"main"
 7771      00
 7772               	.LASF40:
 7773 0607 4770 7343 		.string	"GpsCycle"
 7773      7963 6C65 
 7773      00
 7774               	.global __do_copy_data
 7775               	.global __do_clear_bss
GAS LISTING C:\DOKUME~1\Romahn\LOKALE~1\Temp/ccAI76Wf.s 			page 151


DEFINED SYMBOLS
                            *ABS*:00000000 main.c
C:\DOKUME~1\Romahn\LOKALE~1\Temp/ccAI76Wf.s:2      *ABS*:0000003f __SREG__
C:\DOKUME~1\Romahn\LOKALE~1\Temp/ccAI76Wf.s:3      *ABS*:0000003e __SP_H__
C:\DOKUME~1\Romahn\LOKALE~1\Temp/ccAI76Wf.s:4      *ABS*:0000003d __SP_L__
C:\DOKUME~1\Romahn\LOKALE~1\Temp/ccAI76Wf.s:5      *ABS*:00000034 __CCP__
C:\DOKUME~1\Romahn\LOKALE~1\Temp/ccAI76Wf.s:6      *ABS*:00000000 __tmp_reg__
C:\DOKUME~1\Romahn\LOKALE~1\Temp/ccAI76Wf.s:7      *ABS*:00000001 __zero_reg__
C:\DOKUME~1\Romahn\LOKALE~1\Temp/ccAI76Wf.s:18     .text:00000000 time
C:\DOKUME~1\Romahn\LOKALE~1\Temp/ccAI76Wf.s:2486   .bss:00000000 systime
C:\DOKUME~1\Romahn\LOKALE~1\Temp/ccAI76Wf.s:48     .text:00000010 tsipDecodeSATELLITE
                            *COM*:00000004 tsipSATELLITE
C:\DOKUME~1\Romahn\LOKALE~1\Temp/ccAI76Wf.s:2516   .bss:00000008 satcount
C:\DOKUME~1\Romahn\LOKALE~1\Temp/ccAI76Wf.s:74     .text:00000030 tsipDecodeSTATUS
                            *COM*:0000000e tsipSTATUS
C:\DOKUME~1\Romahn\LOKALE~1\Temp/ccAI76Wf.s:2528   .progmem.data:00000000 disciplinmode0
C:\DOKUME~1\Romahn\LOKALE~1\Temp/ccAI76Wf.s:2533   .progmem.data:00000011 disciplinmode1
C:\DOKUME~1\Romahn\LOKALE~1\Temp/ccAI76Wf.s:2538   .progmem.data:00000022 disciplinmode2
C:\DOKUME~1\Romahn\LOKALE~1\Temp/ccAI76Wf.s:2543   .progmem.data:00000033 disciplinmode3
C:\DOKUME~1\Romahn\LOKALE~1\Temp/ccAI76Wf.s:2548   .progmem.data:00000044 disciplinmode4
C:\DOKUME~1\Romahn\LOKALE~1\Temp/ccAI76Wf.s:2553   .progmem.data:00000055 disciplinmode5
C:\DOKUME~1\Romahn\LOKALE~1\Temp/ccAI76Wf.s:2558   .progmem.data:00000066 disciplinmode6
C:\DOKUME~1\Romahn\LOKALE~1\Temp/ccAI76Wf.s:2563   .progmem.data:00000077 disciplinmodeu
C:\DOKUME~1\Romahn\LOKALE~1\Temp/ccAI76Wf.s:2568   .progmem.data:00000088 decodingstatus0
C:\DOKUME~1\Romahn\LOKALE~1\Temp/ccAI76Wf.s:2573   .progmem.data:00000099 decodingstatus1
C:\DOKUME~1\Romahn\LOKALE~1\Temp/ccAI76Wf.s:2578   .progmem.data:000000aa decodingstatus2
C:\DOKUME~1\Romahn\LOKALE~1\Temp/ccAI76Wf.s:2583   .progmem.data:000000bb decodingstatus3
C:\DOKUME~1\Romahn\LOKALE~1\Temp/ccAI76Wf.s:2588   .progmem.data:000000cc decodingstatus8
C:\DOKUME~1\Romahn\LOKALE~1\Temp/ccAI76Wf.s:2593   .progmem.data:000000dd decodingstatus9
C:\DOKUME~1\Romahn\LOKALE~1\Temp/ccAI76Wf.s:2598   .progmem.data:000000ee decodingstatus10
C:\DOKUME~1\Romahn\LOKALE~1\Temp/ccAI76Wf.s:2603   .progmem.data:000000ff decodingstatus11
C:\DOKUME~1\Romahn\LOKALE~1\Temp/ccAI76Wf.s:2608   .progmem.data:00000110 decodingstatus12
C:\DOKUME~1\Romahn\LOKALE~1\Temp/ccAI76Wf.s:2613   .progmem.data:00000121 decodingstatus16
C:\DOKUME~1\Romahn\LOKALE~1\Temp/ccAI76Wf.s:2618   .progmem.data:00000132 decodingstatusu
                            *COM*:00000002 gpshealth
C:\DOKUME~1\Romahn\LOKALE~1\Temp/ccAI76Wf.s:2623   .progmem.data:00000143 decodingactivity0
C:\DOKUME~1\Romahn\LOKALE~1\Temp/ccAI76Wf.s:2628   .progmem.data:00000154 decodingactivity1
C:\DOKUME~1\Romahn\LOKALE~1\Temp/ccAI76Wf.s:2633   .progmem.data:00000165 decodingactivity2
C:\DOKUME~1\Romahn\LOKALE~1\Temp/ccAI76Wf.s:2638   .progmem.data:00000176 decodingactivity3
C:\DOKUME~1\Romahn\LOKALE~1\Temp/ccAI76Wf.s:2643   .progmem.data:00000187 decodingactivity4
C:\DOKUME~1\Romahn\LOKALE~1\Temp/ccAI76Wf.s:2648   .progmem.data:00000198 decodingactivity5
C:\DOKUME~1\Romahn\LOKALE~1\Temp/ccAI76Wf.s:2653   .progmem.data:000001a9 decodingactivity6
C:\DOKUME~1\Romahn\LOKALE~1\Temp/ccAI76Wf.s:2658   .progmem.data:000001ba decodingactivity7
C:\DOKUME~1\Romahn\LOKALE~1\Temp/ccAI76Wf.s:2663   .progmem.data:000001cb decodingactivity8
C:\DOKUME~1\Romahn\LOKALE~1\Temp/ccAI76Wf.s:2668   .progmem.data:000001dc decodingactivity9
C:\DOKUME~1\Romahn\LOKALE~1\Temp/ccAI76Wf.s:2673   .progmem.data:000001ed decodingactivityu
C:\DOKUME~1\Romahn\LOKALE~1\Temp/ccAI76Wf.s:2504   .bss:00000005 minorwert
C:\DOKUME~1\Romahn\LOKALE~1\Temp/ccAI76Wf.s:2510   .bss:00000007 minorbit
C:\DOKUME~1\Romahn\LOKALE~1\Temp/ccAI76Wf.s:2678   .progmem.data:000001fe decodingmalarm0
C:\DOKUME~1\Romahn\LOKALE~1\Temp/ccAI76Wf.s:2683   .progmem.data:0000020f decodingmalarm1
C:\DOKUME~1\Romahn\LOKALE~1\Temp/ccAI76Wf.s:2688   .progmem.data:00000220 decodingmalarm2
C:\DOKUME~1\Romahn\LOKALE~1\Temp/ccAI76Wf.s:2693   .progmem.data:00000231 decodingmalarm3
C:\DOKUME~1\Romahn\LOKALE~1\Temp/ccAI76Wf.s:2698   .progmem.data:00000242 decodingmalarm4
C:\DOKUME~1\Romahn\LOKALE~1\Temp/ccAI76Wf.s:2703   .progmem.data:00000253 decodingmalarm5
C:\DOKUME~1\Romahn\LOKALE~1\Temp/ccAI76Wf.s:2708   .progmem.data:00000264 decodingmalarm6
C:\DOKUME~1\Romahn\LOKALE~1\Temp/ccAI76Wf.s:2713   .progmem.data:00000275 decodingmalarm7
C:\DOKUME~1\Romahn\LOKALE~1\Temp/ccAI76Wf.s:2718   .progmem.data:00000286 decodingmalarm8
GAS LISTING C:\DOKUME~1\Romahn\LOKALE~1\Temp/ccAI76Wf.s 			page 152


C:\DOKUME~1\Romahn\LOKALE~1\Temp/ccAI76Wf.s:2723   .progmem.data:00000297 decodingmalarm9
C:\DOKUME~1\Romahn\LOKALE~1\Temp/ccAI76Wf.s:2728   .progmem.data:000002a8 decodingmalarm10
C:\DOKUME~1\Romahn\LOKALE~1\Temp/ccAI76Wf.s:2733   .progmem.data:000002b9 decodingmalarm11
C:\DOKUME~1\Romahn\LOKALE~1\Temp/ccAI76Wf.s:2738   .progmem.data:000002ca decodingmalarm12
C:\DOKUME~1\Romahn\LOKALE~1\Temp/ccAI76Wf.s:2743   .progmem.data:000002db decodingmalarmu
C:\DOKUME~1\Romahn\LOKALE~1\Temp/ccAI76Wf.s:2748   .progmem.data:000002ec criticalalarm
C:\DOKUME~1\Romahn\LOKALE~1\Temp/ccAI76Wf.s:575    .text:0000026c swap_uint16
C:\DOKUME~1\Romahn\LOKALE~1\Temp/ccAI76Wf.s:593    .text:00000274 swap_uint32
C:\DOKUME~1\Romahn\LOKALE~1\Temp/ccAI76Wf.s:638    .text:000002b2 DateToMjd
C:\DOKUME~1\Romahn\LOKALE~1\Temp/ccAI76Wf.s:822    .text:000003fa MjdToDate
C:\DOKUME~1\Romahn\LOKALE~1\Temp/ccAI76Wf.s:1102   .text:000005da GpsToMjd
C:\DOKUME~1\Romahn\LOKALE~1\Temp/ccAI76Wf.s:1237   .text:000006be dow
C:\DOKUME~1\Romahn\LOKALE~1\Temp/ccAI76Wf.s:2797   .data:0000002a t.2151
C:\DOKUME~1\Romahn\LOKALE~1\Temp/ccAI76Wf.s:1312   .text:00000726 hwinit
C:\DOKUME~1\Romahn\LOKALE~1\Temp/ccAI76Wf.s:1348   .text:00000746 __vector_7
C:\DOKUME~1\Romahn\LOKALE~1\Temp/ccAI76Wf.s:2498   .bss:00000004 key
C:\DOKUME~1\Romahn\LOKALE~1\Temp/ccAI76Wf.s:1376   .text:00000766 __vector_6
C:\DOKUME~1\Romahn\LOKALE~1\Temp/ccAI76Wf.s:2522   .bss:00000009 newsec
C:\DOKUME~1\Romahn\LOKALE~1\Temp/ccAI76Wf.s:1415   .text:000007a2 __vector_1
C:\DOKUME~1\Romahn\LOKALE~1\Temp/ccAI76Wf.s:1436   .text:000007b6 __vector_10
C:\DOKUME~1\Romahn\LOKALE~1\Temp/ccAI76Wf.s:1457   .text:000007ca __vector_9
C:\DOKUME~1\Romahn\LOKALE~1\Temp/ccAI76Wf.s:2778   .data:00000029 rxBufLen.2332
                             .bss:00000025 stuff.2331
C:\DOKUME~1\Romahn\LOKALE~1\Temp/ccAI76Wf.s:2492   .bss:00000002 lastgpspkt
                            *COM*:00000045 rxBuffer
C:\DOKUME~1\Romahn\LOKALE~1\Temp/ccAI76Wf.s:2755   .bss:0000000a tsipGPSTIME
C:\DOKUME~1\Romahn\LOKALE~1\Temp/ccAI76Wf.s:1641   .text:000008f2 tsipDecodeGPSTIME
                            *COM*:00000002 gps_time
C:\DOKUME~1\Romahn\LOKALE~1\Temp/ccAI76Wf.s:2767   .bss:00000021 mez
C:\DOKUME~1\Romahn\LOKALE~1\Temp/ccAI76Wf.s:2761   .bss:0000001d dst
                            *COM*:00000021 gpstime
C:\DOKUME~1\Romahn\LOKALE~1\Temp/ccAI76Wf.s:2773   .progmem.data:000002fd months
C:\DOKUME~1\Romahn\LOKALE~1\Temp/ccAI76Wf.s:2221   .text:00000d62 main
C:\DOKUME~1\Romahn\LOKALE~1\Temp/ccAI76Wf.s:2792   .progmem.data:00000347 __c.2286
C:\DOKUME~1\Romahn\LOKALE~1\Temp/ccAI76Wf.s:2788   .progmem.data:00000336 __c.2288
C:\DOKUME~1\Romahn\LOKALE~1\Temp/ccAI76Wf.s:2784   .progmem.data:00000325 __c.2290
                            *COM*:00000021 lcdScreen

UNDEFINED SYMBOLS
__mulsi3
__divmodsi4
__divmodhi4
sprintf
strncpy_P
lcd_init
lcd_clrscr
lcd_puts_p
lcd_gotoxy
itoa
lcd_puts
__do_copy_data
__do_clear_bss
